(dp0
(I7
I3
tp1
((dp2
S'mu'
p3
F-0.01396714424103751
sS'sigma'
p4
F1.2496438596637751
s(dp5
g3
F0.13785167770936163
sg4
F0.09805526319010993
s(dp6
g3
F0.19903450879007
sg4
F1.249248430663215
s(dp7
g3
F0.13712705865243247
sg4
F0.09462829992618971
stp8
s(I11
I68
tp9
((dp10
g3
F0.020151066038623267
sg4
F1.3062159862388896
s(dp11
g3
F0.1441097326711891
sg4
F0.10810187884397293
s(dp12
g3
F4.138631366976966
sg4
F1.713833049485479
s(dp13
g3
F0.19008844185854912
sg4
F0.1327932517074728
stp14
s(I12
I78
tp15
((dp16
g3
F-0.0017133825002949576
sg4
F1.259462071989738
s(dp17
g3
F0.13850786137902815
sg4
F0.10090020684323353
s(dp18
g3
F4.131414815161593
sg4
F1.774930166663031
s(dp19
g3
F0.1954496101571963
sg4
F0.14252008525766613
stp20
s(I9
I84
tp21
((dp22
g3
F-0.02550165808403848
sg4
F1.2328560507317583
s(dp23
g3
F0.1362392165051961
sg4
F0.09785569250396375
s(dp24
g3
F3.8129899745006384
sg4
F1.9580116156140883
s(dp25
g3
F0.21709384950786603
sg4
F0.16782339057037787
stp26
s(I6
I28
tp27
((dp28
g3
F0.014401314459190573
sg4
F1.2218841737598973
s(dp29
g3
F0.13399388994896644
sg4
F0.09273283362463647
s(dp30
g3
F1.527934887795718
sg4
F1.3322765761115294
s(dp31
g3
F0.14776752408868643
sg4
F0.09722227098287728
stp32
s(I8
I63
tp33
((dp34
g3
F-0.007184505126058838
sg4
F1.2923471906247606
s(dp35
g3
F0.14423342357393198
sg4
F0.10102229035941412
s(dp36
g3
F3.8847565600924723
sg4
F1.682437015956718
s(dp37
g3
F0.18684835016750423
sg4
F0.13832316374419673
stp38
s(I7
I25
tp39
((dp40
g3
F-0.011646060930976643
sg4
F1.2220218304531998
s(dp41
g3
F0.13447000801934533
sg4
F0.09308455589681797
s(dp42
g3
F1.5106178446565868
sg4
F1.3724594912078192
s(dp43
g3
F0.15416747165589295
sg4
F0.1122725887685374
stp44
s(I13
I70
tp45
((dp46
g3
F-0.02690058839137821
sg4
F1.2981715006388397
s(dp47
g3
F0.14303343884815178
sg4
F0.10272557091723844
s(dp48
g3
F4.188322388997446
sg4
F1.7369235024164633
s(dp49
g3
F0.19177564422098525
sg4
F0.13429657042911614
stp50
s(I9
I62
tp51
((dp52
g3
F0.003133799188485442
sg4
F1.312054280404193
s(dp53
g3
F0.14425292211440288
sg4
F0.1024704720210986
s(dp54
g3
F3.9189625565848534
sg4
F1.6558361109632687
s(dp55
g3
F0.18623165668954167
sg4
F0.1321218990508386
stp56
s(I6
I54
tp57
((dp58
g3
F0.018387183309553023
sg4
F1.2277784549273734
s(dp59
g3
F0.13537692729389422
sg4
F0.09777036297235164
s(dp60
g3
F3.13942898957861
sg4
F1.519617040360933
s(dp61
g3
F0.16831414882451368
sg4
F0.11635973870476168
stp62
s(I10
I61
tp63
((dp64
g3
F0.0063167016957388356
sg4
F1.3114292481077632
s(dp65
g3
F0.14512943877973528
sg4
F0.10858061686427867
s(dp66
g3
F3.933334870073079
sg4
F1.674772548031699
s(dp67
g3
F0.18713165845439006
sg4
F0.13112197017811422
stp68
s(I8
I5
tp69
((dp70
g3
F-0.02065723643831585
sg4
F1.2903854311497676
s(dp71
g3
F0.14288562703367502
sg4
F0.10456827838188465
s(dp72
g3
F0.3358032441255885
sg4
F1.3060719223209367
s(dp73
g3
F0.14611457154503715
sg4
F0.10632961395643326
stp74
s(I7
I55
tp75
((dp76
g3
F0.0003450284945518689
sg4
F1.2585359364406228
s(dp77
g3
F0.13976955182917256
sg4
F0.102404004063541
s(dp78
g3
F3.3705576743134724
sg4
F1.581690728272896
s(dp79
g3
F0.1757434839243346
sg4
F0.129604209090445
stp80
s(I13
I32
tp81
((dp82
g3
F-0.008528410781772466
sg4
F1.3329029254484708
s(dp83
g3
F0.14687941160160078
sg4
F0.10420722201347343
s(dp84
g3
F2.4468947070323184
sg4
F1.4716179642803404
s(dp85
g3
F0.16449258484106655
sg4
F0.11729995873785248
stp86
s(I11
I48
tp87
((dp88
g3
F0.011846819762013183
sg4
F1.3094384268089505
s(dp89
g3
F0.1437390923638805
sg4
F0.10377018665101934
s(dp90
g3
F3.3341946643539995
sg4
F1.6153472667941586
s(dp91
g3
F0.18047322258783494
sg4
F0.13120042161117218
stp92
s(I9
I0
tp93
((dp94
g3
F-0.01392688078898241
sg4
F1.3022349172995704
s(dp95
g3
F0.14270191586968767
sg4
F0.10094669077707852
s(dp96
g3
F0.017899319847690887
sg4
F1.3192493911256233
s(dp97
g3
F0.14607321088648706
sg4
F0.11081118109352617
stp98
s(I6
I72
tp99
((dp100
g3
F0.006067885277126983
sg4
F1.2626985634973469
s(dp101
g3
F0.13987975135602282
sg4
F0.09947223585558018
s(dp102
g3
F3.964235527906526
sg4
F1.7169812959234378
s(dp103
g3
F0.1920303635284668
sg4
F0.1347510548857379
stp104
s(I12
I59
tp105
((dp106
g3
F0.020148260480393976
sg4
F1.3220949822909884
s(dp107
g3
F0.14489324814925875
sg4
F0.10537316593015822
s(dp108
g3
F3.8582427524172545
sg4
F1.6983472914140954
s(dp109
g3
F0.18935488805751
sg4
F0.13676231545116946
stp110
s(I10
I7
tp111
((dp112
g3
F-0.014915050338118019
sg4
F1.3477538524907755
s(dp113
g3
F0.14873547752520921
sg4
F0.10461578474063016
s(dp114
g3
F0.5176618397471238
sg4
F1.3490387164944488
s(dp115
g3
F0.14917424176036154
sg4
F0.09997391140754652
stp116
s(I13
I58
tp117
((dp118
g3
F0.001988402568985581
sg4
F1.3213508651058161
s(dp119
g3
F0.14493710215696648
sg4
F0.10484019076168727
s(dp120
g3
F3.8659936320072186
sg4
F1.6665385514832345
s(dp121
g3
F0.18396977115975544
sg4
F0.12232556066845135
stp122
s(I11
I22
tp123
((dp124
g3
F0.00984318705042786
sg4
F1.3691132353761564
s(dp125
g3
F0.15173205658678623
sg4
F0.10623042178813646
s(dp126
g3
F1.6654257358036415
sg4
F1.428272710933391
s(dp127
g3
F0.160435641058712
sg4
F0.1094746132761294
stp128
s(I7
I68
tp129
((dp130
g3
F-0.024591873830769995
sg4
F1.2499668394159404
s(dp131
g3
F0.13759966324360273
sg4
F0.09964006362083411
s(dp132
g3
F3.9685902200216763
sg4
F1.6646826263000596
s(dp133
g3
F0.1845422075106664
sg4
F0.13264709924281326
stp134
s(I12
I17
tp135
((dp136
g3
F-0.004663019451007
sg4
F1.3260709988770354
s(dp137
g3
F0.1458183964630888
sg4
F0.10431429457510166
s(dp138
g3
F1.2682859865135319
sg4
F1.4254900708004739
s(dp139
g3
F0.1582157254835881
sg4
F0.11376585037272091
stp140
s(I13
I20
tp141
((dp142
g3
F-0.0011611327273697292
sg4
F1.3503908083042042
s(dp143
g3
F0.14782973436006602
sg4
F0.10572536265207921
s(dp144
g3
F1.5993753439231515
sg4
F1.4432436964140243
s(dp145
g3
F0.161000404227849
sg4
F0.11780826004315659
stp146
s(I10
I75
tp147
((dp148
g3
F-0.01176533399690316
sg4
F1.3050580474933993
s(dp149
g3
F0.14338860758178107
sg4
F0.1035626010227193
s(dp150
g3
F4.100782249920915
sg4
F1.71864173459761
s(dp151
g3
F0.18978676939979255
sg4
F0.13221940411198452
stp152
s(I8
I87
tp153
((dp154
g3
F-0.013124751466953466
sg4
F1.1540050746736563
s(dp155
g3
F0.12616584888700388
sg4
F0.09145100042406173
s(dp156
g3
F3.254261463693597
sg4
F2.2627787484352666
s(dp157
g3
F0.2629110986119376
sg4
F0.20087261895118935
stp158
s(I12
I69
tp159
((dp160
g3
F-0.007264328937216513
sg4
F1.2957274913373955
s(dp161
g3
F0.1428594704299913
sg4
F0.1048058906486734
s(dp162
g3
F4.131202997715691
sg4
F1.7023640100144248
s(dp163
g3
F0.18886173531872252
sg4
F0.13583935011961235
stp164
s(I10
I85
tp165
((dp166
g3
F0.014377986426744371
sg4
F1.1993841504478366
s(dp167
g3
F0.13086075170136446
sg4
F0.09178419452421671
s(dp168
g3
F3.685051293692717
sg4
F2.0341802053405544
s(dp169
g3
F0.22561973853457662
sg4
F0.18110655420984278
stp170
s(I6
I23
tp171
((dp172
g3
F-0.022436943770248075
sg4
F1.20142008637407
s(dp173
g3
F0.13266774487005245
sg4
F0.09860453969117478
s(dp174
g3
F1.2590520570312318
sg4
F1.2870738332180598
s(dp175
g3
F0.14342655140061655
sg4
F0.09492606670935744
stp176
s(I8
I38
tp177
((dp178
g3
F0.020295568130110464
sg4
F1.3274135558003746
s(dp179
g3
F0.14924270656900873
sg4
F0.11219557618734877
s(dp180
g3
F2.481557873858762
sg4
F1.4330343050870114
s(dp181
g3
F0.15862061374851288
sg4
F0.1075069081939799
stp182
s(I7
I22
tp183
((dp184
g3
F0.01261044584377835
sg4
F1.2638957782486022
s(dp185
g3
F0.1408701886924108
sg4
F0.09936626113103753
s(dp186
g3
F1.314044929851124
sg4
F1.347617409225324
s(dp187
g3
F0.15177198839489248
sg4
F0.1003203226883912
stp188
s(I11
I83
tp189
((dp190
g3
F-0.014311672306418388
sg4
F1.2539850578632823
s(dp191
g3
F0.13729765037419273
sg4
F0.09948545090902039
s(dp192
g3
F3.89982895243267
sg4
F1.9425688516877901
s(dp193
g3
F0.21391371540863924
sg4
F0.164670823625772
stp194
s(I9
I39
tp195
((dp196
g3
F0.01635615690526193
sg4
F1.3192851025168006
s(dp197
g3
F0.145692731558124
sg4
F0.10480047118764779
s(dp198
g3
F2.640607250908896
sg4
F1.475410817578334
s(dp199
g3
F0.16377853125164687
sg4
F0.11450652479258261
stp200
s(I6
I41
tp201
((dp202
g3
F0.024831811769397083
sg4
F1.2244374861937144
s(dp203
g3
F0.1343340917444622
sg4
F0.09361996184751409
s(dp204
g3
F2.31236545073942
sg4
F1.437895030618102
s(dp205
g3
F0.15906291103292713
sg4
F0.10721303093977919
stp206
s(I10
I36
tp207
((dp208
g3
F0.003938661813090327
sg4
F1.2981847752021332
s(dp209
g3
F0.14292593069388326
sg4
F0.10407453173833381
s(dp210
g3
F2.5243946762049787
sg4
F1.45316420344771
s(dp211
g3
F0.16480390862990402
sg4
F0.11643044613672748
stp212
s(I8
I12
tp213
((dp214
g3
F-0.0144253809505559
sg4
F1.2890062920464807
s(dp215
g3
F0.14219105959880185
sg4
F0.09778813777813111
s(dp216
g3
F0.7751275322524349
sg4
F1.350576363132659
s(dp217
g3
F0.15114143631808485
sg4
F0.11055750218881466
stp218
s(I7
I44
tp219
((dp220
g3
F-0.010925118625320085
sg4
F1.2750886756441036
s(dp221
g3
F0.14022326098284715
sg4
F0.09947573295377055
s(dp222
g3
F2.6815773576576207
sg4
F1.4666077429314934
s(dp223
g3
F0.1632725881088457
sg4
F0.1163005879272575
stp224
s(I13
I89
tp225
((dp226
g3
F-0.009999559293996763
sg4
F1.0896926391448587
s(dp227
g3
F0.11726470546218293
sg4
F0.08283915527429853
s(dp228
g3
F1.9781575850210364
sg4
F2.9080848571138804
s(dp229
g3
F0.4809480991952293
sg4
F0.3568379724643769
stp230
s(I11
I41
tp231
((dp232
g3
F0.005847800815403925
sg4
F1.3256958937278738
s(dp233
g3
F0.14569693629201208
sg4
F0.10603840164170342
s(dp234
g3
F2.9563704765939844
sg4
F1.5469037484349322
s(dp235
g3
F0.17162696296691538
sg4
F0.12411220793700917
stp236
s(I9
I9
tp237
((dp238
g3
F-0.009711628391807614
sg4
F1.280841132607433
s(dp239
g3
F0.14246593886723646
sg4
F0.10205550315105161
s(dp240
g3
F0.6320339219584152
sg4
F1.3291834880254931
s(dp241
g3
F0.14755609813411819
sg4
F0.10380719366231406
stp242
s(I6
I67
tp243
((dp244
g3
F-0.0012257641354668225
sg4
F1.2483458247504022
s(dp245
g3
F0.13892284680949074
sg4
F0.09875148842745762
s(dp246
g3
F3.8326261365620375
sg4
F1.6208759469561773
s(dp247
g3
F0.17866244968831202
sg4
F0.12621000525254944
stp248
s(I12
I50
tp249
((dp250
g3
F0.004070577611522408
sg4
F1.314440701306938
s(dp251
g3
F0.14575938452235793
sg4
F0.10603202481288077
s(dp252
g3
F3.5277500085453575
sg4
F1.6357842434662921
s(dp253
g3
F0.1830601460961785
sg4
F0.13263966109151115
stp254
s(I10
I14
tp255
((dp256
g3
F-0.00535400261199781
sg4
F1.3096131751577653
s(dp257
g3
F0.14451504999151826
sg4
F0.10288985955966345
s(dp258
g3
F0.9969703590533128
sg4
F1.356869773199497
s(dp259
g3
F0.1510852349032884
sg4
F0.1032448974597131
stp260
s(I8
I18
tp261
((dp262
g3
F-0.005846635825948909
sg4
F1.2608450526874686
s(dp263
g3
F0.13879454255987766
sg4
F0.09612235642026301
s(dp264
g3
F1.1600491981424463
sg4
F1.3383929985625773
s(dp265
g3
F0.14753102767682136
sg4
F0.10018522990228707
stp266
s(I13
I51
tp267
((dp268
g3
F-0.017780463980351602
sg4
F1.3156958324585357
s(dp269
g3
F0.1447350334868287
sg4
F0.10518074587023962
s(dp270
g3
F3.58282997464375
sg4
F1.6326563044968434
s(dp271
g3
F0.18076688991753675
sg4
F0.13171008686281416
stp272
s(I11
I15
tp273
((dp274
g3
F0.005524360540564599
sg4
F1.317034108591555
s(dp275
g3
F0.14508034463049835
sg4
F0.103109054627889
s(dp276
g3
F1.1464463404640863
sg4
F1.4151788572554413
s(dp277
g3
F0.15667301066652772
sg4
F0.1122058684625209
stp278
s(I9
I19
tp279
((dp280
g3
F-0.019668373074172463
sg4
F1.2750975109038225
s(dp281
g3
F0.13996633049511303
sg4
F0.09432922297593294
s(dp282
g3
F1.3014675825358815
sg4
F1.3870987568468554
s(dp283
g3
F0.15325623818870615
sg4
F0.1072372644874724
stp284
s(I12
I8
tp285
((dp286
g3
F-0.013089195587614344
sg4
F1.3515944809565967
s(dp287
g3
F0.14990157742959676
sg4
F0.11015071280905175
s(dp288
g3
F0.6531085672088985
sg4
F1.3764030275566344
s(dp289
g3
F0.15247695323897703
sg4
F0.10589177944010919
stp290
s(I13
I13
tp291
((dp292
g3
F0.025089485563776215
sg4
F1.3436222065040397
s(dp293
g3
F0.14770284837134545
sg4
F0.1096871646561115
s(dp294
g3
F1.0361141537359875
sg4
F1.3803087136403733
s(dp295
g3
F0.15252763986959783
sg4
F0.10578672933733779
stp296
s(I9
I70
tp297
((dp298
g3
F-0.013271798301271787
sg4
F1.258475212402576
s(dp299
g3
F0.13889338977239674
sg4
F0.09853873554797332
s(dp300
g3
F4.096612267417475
sg4
F1.7394213846391056
s(dp301
g3
F0.19334391618710844
sg4
F0.144125450835899
stp302
s(I6
I14
tp303
((dp304
g3
F-0.00793966242811317
sg4
F1.2170597116469772
s(dp305
g3
F0.13380016323822175
sg4
F0.09737689780884973
s(dp306
g3
F0.7552134010146565
sg4
F1.28081000673335
s(dp307
g3
F0.14311990881828252
sg4
F0.09869568544602814
stp308
s(I8
I45
tp309
((dp310
g3
F0.004164415563906676
sg4
F1.2711013972901515
s(dp311
g3
F0.14014440083732127
sg4
F0.09949925941181859
s(dp312
g3
F2.9056164531573194
sg4
F1.483698637996115
s(dp313
g3
F0.1645816358872736
sg4
F0.11454218236718161
stp314
s(I7
I15
tp315
((dp316
g3
F0.005629467346289996
sg4
F1.257979261169571
s(dp317
g3
F0.1388850279448951
sg4
F0.10376361669516643
s(dp318
g3
F0.9151094734346963
sg4
F1.3068318423599248
s(dp319
g3
F0.1487342861134232
sg4
F0.10104082584500029
stp320
s(I11
I72
tp321
((dp322
g3
F0.01697398335805156
sg4
F1.279793259964738
s(dp323
g3
F0.1405081890253117
sg4
F0.0966123134562229
s(dp324
g3
F4.1557089210292855
sg4
F1.7148645796053628
s(dp325
g3
F0.18907631744510534
sg4
F0.13637078002661507
stp326
s(I9
I40
tp327
((dp328
g3
F0.005478820357714742
sg4
F1.2705002817264963
s(dp329
g3
F0.14008569928577996
sg4
F0.10189001643342188
s(dp330
g3
F2.7116355621006463
sg4
F1.467711846101022
s(dp331
g3
F0.16295044083273202
sg4
F0.10996301561666066
stp332
s(I6
I32
tp333
((dp334
g3
F0.0042994135202332195
sg4
F1.2423213543078144
s(dp335
g3
F0.13745195633647644
sg4
F0.09883639054838056
s(dp336
g3
F1.7426065839563174
sg4
F1.3259638829508302
s(dp337
g3
F0.14770132718651574
sg4
F0.10372300898132158
stp338
s(I10
I47
tp339
((dp340
g3
F0.006526312724065342
sg4
F1.3446316477358955
s(dp341
g3
F0.14948674121916827
sg4
F0.11248799154487843
s(dp342
g3
F3.2542217747196567
sg4
F1.5678220885665148
s(dp343
g3
F0.174104496165286
sg4
F0.11912991202544654
stp344
s(I8
I51
tp345
((dp346
g3
F0.0009888402728785994
sg4
F1.3095921890229074
s(dp347
g3
F0.14419174867360074
sg4
F0.10384666272676424
s(dp348
g3
F3.2959833084864636
sg4
F1.5392039216972895
s(dp349
g3
F0.17164347747281772
sg4
F0.12715117389153818
stp350
s(I7
I37
tp351
((dp352
g3
F0.0031992217431744407
sg4
F1.2857763844265635
s(dp353
g3
F0.14206748625277454
sg4
F0.10048301128778492
s(dp354
g3
F2.2539903297526704
sg4
F1.4098192629641408
s(dp355
g3
F0.15585902554076525
sg4
F0.10055368057706815
stp356
s(I13
I82
tp357
((dp358
g3
F-0.021361773202972723
sg4
F1.2395983832759123
s(dp359
g3
F0.13641064214156418
sg4
F0.09643192413314261
s(dp360
g3
F4.005728480800506
sg4
F1.8898206355497706
s(dp361
g3
F0.20684325759873534
sg4
F0.15256518624645088
stp362
s(I11
I46
tp363
((dp364
g3
F-0.003356407561724395
sg4
F1.3284247523716166
s(dp365
g3
F0.1469151492506181
sg4
F0.1095651521305725
s(dp366
g3
F3.2681253293474484
sg4
F1.6008262772408008
s(dp367
g3
F0.17893044894729604
sg4
F0.13809548550924666
stp368
s(I9
I50
tp369
((dp370
g3
F-0.014578953006537554
sg4
F1.2989871619564104
s(dp371
g3
F0.14290529997770207
sg4
F0.10162881815877678
s(dp372
g3
F3.327931799526711
sg4
F1.5429606120845136
s(dp373
g3
F0.17007547118452981
sg4
F0.12076108063800772
stp374
s(I6
I58
tp375
((dp376
g3
F0.012913895106051676
sg4
F1.2354471900151909
s(dp377
g3
F0.13565116861302218
sg4
F0.09842629206218045
s(dp378
g3
F3.401317512701505
sg4
F1.5598452668129932
s(dp379
g3
F0.174415498989422
sg4
F0.12033472092122832
stp380
s(I12
I41
tp381
((dp382
g3
F0.012114635865605239
sg4
F1.308960363435316
s(dp383
g3
F0.14420501864667867
sg4
F0.10386185765067091
s(dp384
g3
F3.0071488756708398
sg4
F1.5760813250315857
s(dp385
g3
F0.17654989464348936
sg4
F0.12341348675782537
stp386
s(I10
I9
tp387
((dp388
g3
F0.002427689843468306
sg4
F1.293341002942095
s(dp389
g3
F0.14242120752447518
sg4
F0.09991241430253595
s(dp390
g3
F0.6613186758058789
sg4
F1.3363965322085054
s(dp391
g3
F0.14721240858286033
sg4
F0.10086736266405238
stp392
s(I8
I25
tp393
((dp394
g3
F0.019596296035549354
sg4
F1.2561899970001074
s(dp395
g3
F0.13823967148695976
sg4
F0.09867956263602085
s(dp396
g3
F1.6260618704792846
sg4
F1.3628544856050921
s(dp397
g3
F0.14947587045404065
sg4
F0.09890825506829137
stp398
s(I13
I44
tp399
((dp400
g3
F-0.005830144575929674
sg4
F1.3355497014245152
s(dp401
g3
F0.14738580676458368
sg4
F0.10741464200793871
s(dp402
g3
F3.236401334317332
sg4
F1.59229203770645
s(dp403
g3
F0.17849076210090953
sg4
F0.12746762720644855
stp404
s(I11
I4
tp405
((dp406
g3
F0.00457685005110009
sg4
F1.3423463361578394
s(dp407
g3
F0.14847380970527801
sg4
F0.10501249882496388
s(dp408
g3
F0.31336260213986833
sg4
F1.3223122587912661
s(dp409
g3
F0.14568312357940727
sg4
F0.10426182985103083
stp410
s(I9
I20
tp411
((dp412
g3
F-0.00038556751164975367
sg4
F1.271054750829485
s(dp413
g3
F0.1398845915542174
sg4
F0.09950471034143127
s(dp414
g3
F1.3648084339320423
sg4
F1.3705887687848421
s(dp415
g3
F0.15250117824376286
sg4
F0.11577850578755478
stp416
s(I12
I7
tp417
((dp418
g3
F-0.016396537708395664
sg4
F1.377482464629982
s(dp419
g3
F0.15241724804267742
sg4
F0.11052646143619871
s(dp420
g3
F0.5410273700426551
sg4
F1.3645490580789394
s(dp421
g3
F0.15063845879008164
sg4
F0.10860561723331175
stp422
s(I10
I19
tp423
((dp424
g3
F-0.013090305682212255
sg4
F1.3224791430062777
s(dp425
g3
F0.14562208755080436
sg4
F0.1044310761231555
s(dp426
g3
F1.388648500646596
sg4
F1.3916736980813764
s(dp427
g3
F0.1549786357508116
sg4
F0.10783866657694408
stp428
s(I13
I6
tp429
((dp430
g3
F-0.012603468444080446
sg4
F1.3166925451800315
s(dp431
g3
F0.1449252649529007
sg4
F0.10029451352626217
s(dp432
g3
F0.48873732965918104
sg4
F1.3626189942205351
s(dp433
g3
F0.14964538534617433
sg4
F0.10800608007214585
stp434
s(I11
I26
tp435
((dp436
g3
F0.024774171892492536
sg4
F1.305233828180971
s(dp437
g3
F0.1430298100294941
sg4
F0.10202997884553966
s(dp438
g3
F1.912141473091717
sg4
F1.4200922864613912
s(dp439
g3
F0.15808701716815654
sg4
F0.11025848844511177
stp440
s(I7
I80
tp441
((dp442
g3
F-0.007066906518653826
sg4
F1.1989380958829905
s(dp443
g3
F0.13132370426382256
sg4
F0.09545001096898487
s(dp444
g3
F4.042423159245228
sg4
F1.8370009785309713
s(dp445
g3
F0.20362177624205025
sg4
F0.1587723150676179
stp446
s(I12
I29
tp447
((dp448
g3
F-0.01787173400564579
sg4
F1.3407204819716672
s(dp449
g3
F0.1478126672893068
sg4
F0.10258591026634123
s(dp450
g3
F2.199999660195833
sg4
F1.4789325932223485
s(dp451
g3
F0.16408279382341906
sg4
F0.11554165624289747
stp452
s(I8
I69
tp453
((dp454
g3
F0.0032264518948565968
sg4
F1.2624286672902125
s(dp455
g3
F0.13830718309856116
sg4
F0.09851516070108501
s(dp456
g3
F4.0639515645661595
sg4
F1.7437403920931862
s(dp457
g3
F0.19349598621129616
sg4
F0.13823263908285577
stp458
s(I9
I79
tp459
((dp460
g3
F0.009459952691051043
sg4
F1.2617102851181596
s(dp461
g3
F0.13878868595688187
sg4
F0.09999947744182236
s(dp462
g3
F4.076656313639219
sg4
F1.7791416860340967
s(dp463
g3
F0.19668950890522252
sg4
F0.1414819692369328
stp464
s(I10
I71
tp465
((dp466
g3
F-0.007036973778580591
sg4
F1.2593290801567805
s(dp467
g3
F0.13793383592296626
sg4
F0.10179236332390762
s(dp468
g3
F4.134188795781691
sg4
F1.7222077095440884
s(dp469
g3
F0.19202633797675883
sg4
F0.13692078460413004
stp470
s(I6
I1
tp471
((dp472
g3
F0.004899183281817487
sg4
F1.2435209856584066
s(dp473
g3
F0.13844034231259994
sg4
F0.09979074779956842
s(dp474
g3
F0.06552607324796256
sg4
F1.2139011230580923
s(dp475
g3
F0.13393194078060616
sg4
F0.095647566649264
stp476
s(I7
I4
tp477
((dp478
g3
F-0.008106048935689003
sg4
F1.2287144571027322
s(dp479
g3
F0.13483307428554164
sg4
F0.08855716351448084
s(dp480
g3
F0.25965519956378236
sg4
F1.2390065894502482
s(dp481
g3
F0.13705829783842538
sg4
F0.09876840337386694
stp482
s(I11
I65
tp483
((dp484
g3
F-0.0058723617730375155
sg4
F1.288999342545446
s(dp485
g3
F0.14149329669175958
sg4
F0.10191393362029344
s(dp486
g3
F4.029307095579517
sg4
F1.7200418550415872
s(dp487
g3
F0.1933611016621426
sg4
F0.13646652432246453
stp488
s(I12
I81
tp489
((dp490
g3
F0.0027029548772374845
sg4
F1.234383778778644
s(dp491
g3
F0.13571222833960467
sg4
F0.10349832125379
s(dp492
g3
F3.9908291205804485
sg4
F1.8164371906192582
s(dp493
g3
F0.20118455329868778
sg4
F0.15117376776530256
stp494
s(I9
I81
tp495
((dp496
g3
F0.00013533786330532926
sg4
F1.2362016246470202
s(dp497
g3
F0.13582558444055604
sg4
F0.10081272779151706
s(dp498
g3
F3.971352479022224
sg4
F1.8215653096373663
s(dp499
g3
F0.20089680599392734
sg4
F0.14976573600827026
stp500
s(I6
I27
tp501
((dp502
g3
F0.0009058815269855636
sg4
F1.2081237604402189
s(dp503
g3
F0.1322978785787387
sg4
F0.08749738844995592
s(dp504
g3
F1.4950233797636132
sg4
F1.322529957597581
s(dp505
g3
F0.14874003071763253
sg4
F0.10111746452117698
stp506
s(I8
I58
tp507
((dp508
g3
F0.01465015477777043
sg4
F1.3267908924405858
s(dp509
g3
F0.1469770764086017
sg4
F0.10739478687461546
s(dp510
g3
F3.672947083114126
sg4
F1.6079858399363052
s(dp511
g3
F0.18090103353564002
sg4
F0.1309169866109997
stp512
s(I7
I34
tp513
((dp514
g3
F0.0028615921801087296
sg4
F1.2539959519041894
s(dp515
g3
F0.1389773974839436
sg4
F0.09857514495072173
s(dp516
g3
F2.0757657070497046
sg4
F1.3797572939426002
s(dp517
g3
F0.15356665229978184
sg4
F0.1085331258331329
stp518
s(I13
I75
tp519
((dp520
g3
F0.02302043500027451
sg4
F1.3083824940595599
s(dp521
g3
F0.14378296833827653
sg4
F0.10368657440221574
s(dp522
g3
F4.201281728306066
sg4
F1.753395816912345
s(dp523
g3
F0.1939086586071639
sg4
F0.1346786705951617
stp524
s(I11
I39
tp525
((dp526
g3
F-0.01222495621865749
sg4
F1.3422307803906703
s(dp527
g3
F0.14957205152286784
sg4
F0.10741928451749883
s(dp528
g3
F2.812510199263101
sg4
F1.5195418515057593
s(dp529
g3
F0.16768304955086388
sg4
F0.12280844074203456
stp530
s(I9
I59
tp531
((dp532
g3
F-0.009002656770152773
sg4
F1.317250123606892
s(dp533
g3
F0.14544869807700705
sg4
F0.11064142940496025
s(dp534
g3
F3.8067337786426565
sg4
F1.6708203052404393
s(dp535
g3
F0.18560608199671957
sg4
F0.13999989289495152
stp536
s(I6
I61
tp537
((dp538
g3
F0.0023802413908720066
sg4
F1.2553040995732672
s(dp539
g3
F0.13855179319593824
sg4
F0.10241897253190979
s(dp540
g3
F3.5643709795573884
sg4
F1.606934303106439
s(dp541
g3
F0.17956154124784618
sg4
F0.12606477069891864
stp542
s(I12
I32
tp543
((dp544
g3
F0.011773523094420035
sg4
F1.3285859510652935
s(dp545
g3
F0.14516011908157245
sg4
F0.10143143436870405
s(dp546
g3
F2.403024363997325
sg4
F1.4875027919493236
s(dp547
g3
F0.16547855816111023
sg4
F0.11772360514419555
stp548
s(I10
I48
tp549
((dp550
g3
F-0.0027331631517516497
sg4
F1.2811659593065268
s(dp551
g3
F0.1403801066104946
sg4
F0.09920811979681776
s(dp552
g3
F3.355482104112979
sg4
F1.6019992276363604
s(dp553
g3
F0.17944976528235923
sg4
F0.12294628218626558
stp554
s(I8
I0
tp555
((dp556
g3
F0.0015346916209988404
sg4
F1.291939558140097
s(dp557
g3
F0.14304905402079005
sg4
F0.10565876397212304
s(dp558
g3
F-0.0010710615093113551
sg4
F1.3072838807077765
s(dp559
g3
F0.1444197945724559
sg4
F0.10100155744072525
stp560
s(I7
I56
tp561
((dp562
g3
F0.007645802938295976
sg4
F1.282112287573423
s(dp563
g3
F0.14112932199339473
sg4
F0.09703563602299337
s(dp564
g3
F3.4460042848058645
sg4
F1.6034614975745967
s(dp565
g3
F0.18004134370102776
sg4
F0.13674807241968734
stp566
s(I13
I37
tp567
((dp568
g3
F-0.027236318994037112
sg4
F1.3570950327983256
s(dp569
g3
F0.1500762378284563
sg4
F0.10835213452720016
s(dp570
g3
F2.789663204742594
sg4
F1.5474234192110936
s(dp571
g3
F0.17222895143527195
sg4
F0.1238676208127586
stp572
s(I11
I61
tp573
((dp574
g3
F-0.014852704828123064
sg4
F1.3286872069477884
s(dp575
g3
F0.14633673968969074
sg4
F0.10570355983169821
s(dp576
g3
F3.9518236959312425
sg4
F1.661920054734018
s(dp577
g3
F0.18540722843243707
sg4
F0.12774588512420149
stp578
s(I9
I29
tp579
((dp580
g3
F0.007516333203587244
sg4
F1.3092567525879117
s(dp581
g3
F0.14469022139394738
sg4
F0.1035910512048317
s(dp582
g3
F1.9876817678911682
sg4
F1.3944695924069572
s(dp583
g3
F0.15454705081591924
sg4
F0.10279854142897249
stp584
s(I6
I87
tp585
((dp586
g3
F0.002127056511638692
sg4
F1.1345501794086017
s(dp587
g3
F0.12273612928531019
sg4
F0.08939191054716134
s(dp588
g3
F3.2215814779713003
sg4
F2.2884037080729125
s(dp589
g3
F0.2694121722942697
sg4
F0.22757777871529594
stp590
s(I12
I62
tp591
((dp592
g3
F-0.0045389764822511
sg4
F1.3088027342771544
s(dp593
g3
F0.14450379267188307
sg4
F0.10557130718783325
s(dp594
g3
F3.968782080004317
sg4
F1.6960247894397533
s(dp595
g3
F0.18816193388786395
sg4
F0.1330717090932756
stp596
s(I10
I26
tp597
((dp598
g3
F0.014374139969963728
sg4
F1.3066953140238318
s(dp599
g3
F0.14417721241939496
sg4
F0.10225897473283396
s(dp600
g3
F1.8615093147990334
sg4
F1.4123824404047687
s(dp601
g3
F0.15764499293738488
sg4
F0.10993211684121296
stp602
s(I13
I63
tp603
((dp604
g3
F0.029652415258129228
sg4
F1.2939759889402471
s(dp605
g3
F0.14261890286762602
sg4
F0.09927985529032901
s(dp606
g3
F4.02282294777557
sg4
F1.6889717704076899
s(dp607
g3
F0.18633847786827618
sg4
F0.13423445392213895
stp608
s(I11
I19
tp609
((dp610
g3
F-0.0016607675825329737
sg4
F1.319638507012634
s(dp611
g3
F0.1454214136263498
sg4
F0.10203722996782905
s(dp612
g3
F1.4405603705099748
sg4
F1.417023693924151
s(dp613
g3
F0.15792364626669286
sg4
F0.11207453641153087
stp614
s(I7
I73
tp615
((dp616
g3
F0.01174008147017025
sg4
F1.258955589996329
s(dp617
g3
F0.13771806649377827
sg4
F0.09751866324813352
s(dp618
g3
F4.094193029129522
sg4
F1.7343766955222804
s(dp619
g3
F0.19356089576986824
sg4
F0.14448418832396148
stp620
s(I12
I20
tp621
((dp622
g3
F-0.011882855169571216
sg4
F1.3478146116889227
s(dp623
g3
F0.147937139098141
sg4
F0.10380037189348257
s(dp624
g3
F1.532406836405512
sg4
F1.3938214773222368
s(dp625
g3
F0.15376148386052546
sg4
F0.10693048752299439
stp626
s(I8
I76
tp627
((dp628
g3
F0.006226996294515619
sg4
F1.26062315711712
s(dp629
g3
F0.13875052922715847
sg4
F0.10283566370700781
s(dp630
g3
F4.122139409259453
sg4
F1.728409539638803
s(dp631
g3
F0.1921408261552191
sg4
F0.14043591163289781
stp632
s(I13
I25
tp633
((dp634
g3
F0.006950682691625243
sg4
F1.315787175957548
s(dp635
g3
F0.14578928455860207
sg4
F0.10563217386269153
s(dp636
g3
F1.9555469240021992
sg4
F1.4521234842117259
s(dp637
g3
F0.1612035315006075
sg4
F0.1139712411989442
stp638
s(I10
I78
tp639
((dp640
g3
F6.584916550433917e-05
sg4
F1.2828228741276373
s(dp641
g3
F0.14158133365106063
sg4
F0.0982503765384044
s(dp642
g3
F4.101399171445236
sg4
F1.8153419792573542
s(dp643
g3
F0.20014970102418284
sg4
F0.1438558399306008
stp644
s(I8
I82
tp645
((dp646
g3
F-0.0017455353832127596
sg4
F1.203317264296385
s(dp647
g3
F0.13169322332496702
sg4
F0.09578128295092991
s(dp648
g3
F3.9435665272496143
sg4
F1.8851619612948023
s(dp649
g3
F0.20689906672874114
sg4
F0.15892768232408616
stp650
s(I11
I70
tp651
((dp652
g3
F0.0135796974085729
sg4
F1.246696166980481
s(dp653
g3
F0.13737390657264803
sg4
F0.09635755528288947
s(dp654
g3
F4.148720165902822
sg4
F1.712405029686856
s(dp655
g3
F0.19308611572040757
sg4
F0.13318872955477956
stp656
s(I12
I72
tp657
((dp658
g3
F0.009025104283316487
sg4
F1.3178302387543805
s(dp659
g3
F0.14508441825938556
sg4
F0.10492858250210457
s(dp660
g3
F4.208742482028458
sg4
F1.7506900114845128
s(dp661
g3
F0.1970840862997627
sg4
F0.1370123450652596
stp662
s(I6
I18
tp663
((dp664
g3
F0.0037886104675282084
sg4
F1.207105956573575
s(dp665
g3
F0.13379052522664603
sg4
F0.0962645266406641
s(dp666
g3
F0.9756562961677475
sg4
F1.2952246129920821
s(dp667
g3
F0.1458442291058487
sg4
F0.1000128408057992
stp668
s(I8
I33
tp669
((dp670
g3
F0.008291244870965109
sg4
F1.2730463825570666
s(dp671
g3
F0.14122320849387077
sg4
F0.10481364139484273
s(dp672
g3
F2.1663182270928063
sg4
F1.3899483923636486
s(dp673
g3
F0.1558947565592752
sg4
F0.11089394200470903
stp674
s(I7
I27
tp675
((dp676
g3
F0.015442117377484355
sg4
F1.2353239283546882
s(dp677
g3
F0.1358454779454154
sg4
F0.0906264469670035
s(dp678
g3
F1.6161200079002311
sg4
F1.3299996154332057
s(dp679
g3
F0.14803183124563057
sg4
F0.09961295262703451
stp680
s(I13
I68
tp681
((dp682
g3
F0.01983856131884476
sg4
F1.275014548794803
s(dp683
g3
F0.1402843953879715
sg4
F0.10252192986436881
s(dp684
g3
F4.120853008941172
sg4
F1.7583683588429795
s(dp685
g3
F0.19539929675975376
sg4
F0.13749698141614475
stp686
s(I9
I60
tp687
((dp688
g3
F-0.008504226981540741
sg4
F1.316256721451383
s(dp689
g3
F0.14580440533744232
sg4
F0.11033478540617525
s(dp690
g3
F3.8465435864411415
sg4
F1.6749900060205367
s(dp691
g3
F0.18590276462839528
sg4
F0.13217246214314504
stp692
s(I6
I52
tp693
((dp694
g3
F-0.007425421193767767
sg4
F1.2388194130635353
s(dp695
g3
F0.13621640740685698
sg4
F0.09947904007252895
s(dp696
g3
F3.0379718340450994
sg4
F1.4658371862561894
s(dp697
g3
F0.16465942466895078
sg4
F0.1110672521320798
stp698
s(I10
I59
tp699
((dp700
g3
F-0.032356820336423286
sg4
F1.2976654008249735
s(dp701
g3
F0.14319528668044124
sg4
F0.10519719433047081
s(dp702
g3
F3.8226662736784585
sg4
F1.6917130474081057
s(dp703
g3
F0.19048872561548347
sg4
F0.14100469791969528
stp704
s(I8
I7
tp705
((dp706
g3
F-0.019213791126780677
sg4
F1.2792318252399393
s(dp707
g3
F0.14329474955577015
sg4
F0.09978179199083115
s(dp708
g3
F0.46651178226288037
sg4
F1.3060642340320827
s(dp709
g3
F0.14518018899159668
sg4
F0.10872274104868274
stp710
s(I7
I49
tp711
((dp712
g3
F0.0007898717343857165
sg4
F1.2500675015743186
s(dp713
g3
F0.13741323154862728
sg4
F0.0987310760802611
s(dp714
g3
F3.0232405958024637
sg4
F1.4755329958996994
s(dp715
g3
F0.16487880047651715
sg4
F0.11217829765467102
stp716
s(I11
I50
tp717
((dp718
g3
F0.0052534207353063245
sg4
F1.3288357058861016
s(dp719
g3
F0.14679855723535296
sg4
F0.10445014843672573
s(dp720
g3
F3.4580735571402696
sg4
F1.5520733163333589
s(dp721
g3
F0.1738601451487809
sg4
F0.1210804851566597
stp722
s(I9
I6
tp723
((dp724
g3
F0.011888820911180709
sg4
F1.276969783426259
s(dp725
g3
F0.1429919712638386
sg4
F0.09913963698088912
s(dp726
g3
F0.423415972749698
sg4
F1.307646157508294
s(dp727
g3
F0.14386548880997774
sg4
F0.10090994876054893
stp728
s(I6
I78
tp729
((dp730
g3
F-0.0014825328750043276
sg4
F1.255372001198413
s(dp731
g3
F0.1377287772579171
sg4
F0.0993036925437899
s(dp732
g3
F3.9950716872551224
sg4
F1.7538525895424153
s(dp733
g3
F0.19356168190273149
sg4
F0.14537853341169982
stp734
s(I12
I53
tp735
((dp736
g3
F0.00386828231725711
sg4
F1.3277620066325662
s(dp737
g3
F0.14606318947076147
sg4
F0.10782450125264043
s(dp738
g3
F3.663080695624126
sg4
F1.6682525414681222
s(dp739
g3
F0.18558896286192583
sg4
F0.13731470602978535
stp740
s(I10
I5
tp741
((dp742
g3
F0.0050821836792778186
sg4
F1.2960166428858004
s(dp743
g3
F0.14256394358030866
sg4
F0.09963759115643966
s(dp744
g3
F0.3953713124581233
sg4
F1.3372879253327041
s(dp745
g3
F0.149164219492668
sg4
F0.10515217848926495
stp746
s(I13
I56
tp747
((dp748
g3
F0.011799002406895687
sg4
F1.3793101249425654
s(dp749
g3
F0.1529518750267237
sg4
F0.11298762851288946
s(dp750
g3
F3.843058851345659
sg4
F1.7056187207121143
s(dp751
g3
F0.19061096164953062
sg4
F0.12933748789587673
stp752
s(I11
I8
tp753
((dp754
g3
F-0.013042337585143504
sg4
F1.3049257380736539
s(dp755
g3
F0.14337131153348748
sg4
F0.10166377483544853
s(dp756
g3
F0.5941693796117322
sg4
F1.3715002781774428
s(dp757
g3
F0.151718535177212
sg4
F0.11259830501976698
stp758
s(I7
I70
tp759
((dp760
g3
F0.015802033136841587
sg4
F1.2468799892912823
s(dp761
g3
F0.13632966393882978
sg4
F0.0934453326040422
s(dp762
g3
F4.110650219881982
sg4
F1.678209667181696
s(dp763
g3
F0.19061022195855104
sg4
F0.12983685743730433
stp764
s(I12
I19
tp765
((dp766
g3
F-0.001774006406069728
sg4
F1.3501571178922953
s(dp767
g3
F0.1479332825485652
sg4
F0.1047642963642208
s(dp768
g3
F1.4831075357048373
sg4
F1.4314891645609669
s(dp769
g3
F0.163573099397468
sg4
F0.11928432204691153
stp770
s(I13
I18
tp771
((dp772
g3
F0.011080329264472333
sg4
F1.3583650260728213
s(dp773
g3
F0.14974246171541394
sg4
F0.11112244990344333
s(dp774
g3
F1.4320939112841806
sg4
F1.401670966580351
s(dp775
g3
F0.15499965740669497
sg4
F0.10627684374640045
stp776
s(I10
I73
tp777
((dp778
g3
F-0.019000940764333563
sg4
F1.2813695585819587
s(dp779
g3
F0.14095731987779503
sg4
F0.0961338985321426
s(dp780
g3
F4.139293967462557
sg4
F1.7291498740660585
s(dp781
g3
F0.19296560224599446
sg4
F0.13614759160549272
stp782
s(I8
I89
tp783
((dp784
g3
F0.007490767500253348
sg4
F1.100984820408144
s(dp785
g3
F0.11923433049459503
sg4
F0.08419028147416208
s(dp786
g3
F1.8055103666656351
sg4
F3.0131585110722847
s(dp787
g3
F0.5475640607501671
sg4
F0.39596897392169494
stp788
s(I12
I71
tp789
((dp790
g3
F0.023914790442711054
sg4
F1.2525807795542458
s(dp791
g3
F0.13829456647848498
sg4
F0.10010554345916489
s(dp792
g3
F4.15428499543282
sg4
F1.7674565045019992
s(dp793
g3
F0.19479195806588478
sg4
F0.1378743756723786
stp794
s(I9
I67
tp795
((dp796
g3
F-0.01322225969696178
sg4
F1.2937654889220127
s(dp797
g3
F0.14265334088621068
sg4
F0.10308795549884398
s(dp798
g3
F4.0640749905162785
sg4
F1.678369688098582
s(dp799
g3
F0.18850225448812052
sg4
F0.13025753121145645
stp800
s(I10
I83
tp801
((dp802
g3
F0.007324823268176406
sg4
F1.250557047314846
s(dp803
g3
F0.13722875366528253
sg4
F0.099007486273465
s(dp804
g3
F3.8753921099721715
sg4
F1.8757608502431946
s(dp805
g3
F0.20614691384413497
sg4
F0.15021127520833655
stp806
s(I6
I21
tp807
((dp808
g3
F0.01154455041272806
sg4
F1.2220003343384966
s(dp809
g3
F0.13387749976517715
sg4
F0.09346771246461916
s(dp810
g3
F1.1359320888679005
sg4
F1.3359406330584573
s(dp811
g3
F0.1491269840841658
sg4
F0.10113389061994271
stp812
s(I8
I40
tp813
((dp814
g3
F-0.007857419375606911
sg4
F1.2424919816452935
s(dp815
g3
F0.1357635507270022
sg4
F0.09577255391545325
s(dp816
g3
F2.5880017063112577
sg4
F1.4496840146951033
s(dp817
g3
F0.16204244759441733
sg4
F0.12083190553479106
stp818
s(I7
I16
tp819
((dp820
g3
F0.029501427642710354
sg4
F1.2195818348615588
s(dp821
g3
F0.13316571311449515
sg4
F0.0950947834225877
s(dp822
g3
F0.9665577334817725
sg4
F1.3112399275607807
s(dp823
g3
F0.1503025289749329
sg4
F0.10207353733004698
stp824
s(I11
I85
tp825
((dp826
g3
F0.005722186976143906
sg4
F1.2016671653427635
s(dp827
g3
F0.13132067311036422
sg4
F0.09288793558432573
s(dp828
g3
F3.697714419972584
sg4
F2.0574099749989108
s(dp829
g3
F0.22964701303642254
sg4
F0.18248826348077551
stp830
s(I9
I37
tp831
((dp832
g3
F-0.001043573836299605
sg4
F1.3122583905075933
s(dp833
g3
F0.1451247092235236
sg4
F0.10718813516975201
s(dp834
g3
F2.5157658563389864
sg4
F1.4747997309447567
s(dp835
g3
F0.1649192477690704
sg4
F0.11954759426761763
stp836
s(I6
I47
tp837
((dp838
g3
F0.0037197969881921367
sg4
F1.2441329630956746
s(dp839
g3
F0.13754897647729403
sg4
F0.0951162219632673
s(dp840
g3
F2.6841209478333012
sg4
F1.474655156489753
s(dp841
g3
F0.16423978033370057
sg4
F0.11576889287438707
stp842
s(I10
I34
tp843
((dp844
g3
F0.009922533559330926
sg4
F1.2982096409582349
s(dp845
g3
F0.14339157681468206
sg4
F0.10906983792087765
s(dp846
g3
F2.411931483992579
sg4
F1.4768957682605173
s(dp847
g3
F0.16468583406906867
sg4
F0.11901484760309133
stp848
s(I8
I14
tp849
((dp850
g3
F-0.010456348579711006
sg4
F1.2797015248815773
s(dp851
g3
F0.14097798014779617
sg4
F0.10154016134806798
s(dp852
g3
F0.9139426585407349
sg4
F1.3066972065464697
s(dp853
g3
F0.1462494646088437
sg4
F0.10032752529224243
stp854
s(I7
I46
tp855
((dp856
g3
F0.01806159309887745
sg4
F1.2667190866226163
s(dp857
g3
F0.14004800839231363
sg4
F0.09972133034824526
s(dp858
g3
F2.8405602232779406
sg4
F1.4908298323562823
s(dp859
g3
F0.16653587395517988
sg4
F0.11729065930661942
stp860
s(I13
I87
tp861
((dp862
g3
F0.01595320445548154
sg4
F1.1434448699451778
s(dp863
g3
F0.12447197833269236
sg4
F0.08947306423169143
s(dp864
g3
F3.2903124623848807
sg4
F2.3011630024563603
s(dp865
g3
F0.2669435402536924
sg4
F0.2150044497474517
stp866
s(I11
I43
tp867
((dp868
g3
F-0.011224811070845497
sg4
F1.3126729465264884
s(dp869
g3
F0.14422885804607743
sg4
F0.10765841509434071
s(dp870
g3
F3.076222930195696
sg4
F1.5627526219007073
s(dp871
g3
F0.17470973869253936
sg4
F0.12102514662108066
stp872
s(I9
I15
tp873
((dp874
g3
F0.005847215597068578
sg4
F1.2806716310974884
s(dp875
g3
F0.14011666963442682
sg4
F0.09895083787250147
s(dp876
g3
F1.001410128134892
sg4
F1.3748135781688133
s(dp877
g3
F0.1540736150162587
sg4
F0.1114441813624566
stp878
s(I6
I65
tp879
((dp880
g3
F-0.0076356678952856916
sg4
F1.2389590396687247
s(dp881
g3
F0.1356003665358131
sg4
F0.09499869643127279
s(dp882
g3
F3.7725608926674656
sg4
F1.6078309084654083
s(dp883
g3
F0.18023463220543823
sg4
F0.12165706087012684
stp884
s(I12
I44
tp885
((dp886
g3
F0.013799588868322665
sg4
F1.3439740373150282
s(dp887
g3
F0.1477649579951298
sg4
F0.11051102708593707
s(dp888
g3
F3.2241058310297284
sg4
F1.6234046300212046
s(dp889
g3
F0.18368593926517507
sg4
F0.13197664868564052
stp890
s(I10
I12
tp891
((dp892
g3
F0.005241919918982152
sg4
F1.337981622913694
s(dp893
g3
F0.14825206214587477
sg4
F0.10410521171932907
s(dp894
g3
F0.8728074912928321
sg4
F1.3883264113311862
s(dp895
g3
F0.15576471556611882
sg4
F0.11042585291995555
stp896
s(I8
I20
tp897
((dp898
g3
F-0.012692444299181815
sg4
F1.2431401290338808
s(dp899
g3
F0.13631004772494448
sg4
F0.09514098648107838
s(dp900
g3
F1.2660535702542033
sg4
F1.3373087603052551
s(dp901
g3
F0.14778782656906397
sg4
F0.10214612044025961
stp902
s(I13
I49
tp903
((dp904
g3
F-0.01065776573266597
sg4
F1.3112519675125789
s(dp905
g3
F0.14433540272657097
sg4
F0.1089219914198386
s(dp906
g3
F3.511138910574168
sg4
F1.6562403602318385
s(dp907
g3
F0.1856866126019141
sg4
F0.13415097326369974
stp908
s(I11
I1
tp909
((dp910
g3
F-0.014393902344688625
sg4
F1.3620135179754609
s(dp911
g3
F0.15060992874640894
sg4
F0.1033225727518492
s(dp912
g3
F0.08771027277703158
sg4
F1.310954259310106
s(dp913
g3
F0.14508334629438152
sg4
F0.10514810216909065
stp914
s(I9
I17
tp915
((dp916
g3
F0.004379195924065993
sg4
F1.282102689358418
s(dp917
g3
F0.14130771406798182
sg4
F0.09871564166128755
s(dp918
g3
F1.156561810888705
sg4
F1.3567224940041034
s(dp919
g3
F0.14995652793963843
sg4
F0.10209512225795403
stp920
s(I12
I10
tp921
((dp922
g3
F0.02287688395487164
sg4
F1.3424024020883598
s(dp923
g3
F0.14886513916696253
sg4
F0.10792524335969711
s(dp924
g3
F0.8022966981317279
sg4
F1.3658426061569184
s(dp925
g3
F0.15014479822220406
sg4
F0.09701145770638209
stp926
s(I10
I22
tp927
((dp928
g3
F0.002845434779283007
sg4
F1.3214434376510076
s(dp929
g3
F0.1447437062971217
sg4
F0.1000500174756237
s(dp930
g3
F1.579516414400476
sg4
F1.412252129768377
s(dp931
g3
F0.15535008981180165
sg4
F0.10447439964924599
stp932
s(I13
I11
tp933
((dp934
g3
F0.0214368558853133
sg4
F1.353601235942278
s(dp935
g3
F0.1493663030367256
sg4
F0.10812668945447534
s(dp936
g3
F0.8688401552675624
sg4
F1.440264877495729
s(dp937
g3
F0.15880035344779286
sg4
F0.11432531302068893
stp938
s(I7
I85
tp939
((dp940
g3
F0.0011317456869588405
sg4
F1.187161741059044
s(dp941
g3
F0.12959068198057033
sg4
F0.09473541258847573
s(dp942
g3
F3.7256639415676727
sg4
F2.0184528566989086
s(dp943
g3
F0.22235618721519623
sg4
F0.17106123024152498
stp944
s(I8
I64
tp945
((dp946
g3
F-0.019606765902567602
sg4
F1.2982529225137622
s(dp947
g3
F0.1432911461569235
sg4
F0.10376312234891294
s(dp948
g3
F3.916039318207652
sg4
F1.6359358999807563
s(dp949
g3
F0.18092654925730445
sg4
F0.1299583479358135
stp950
s(I9
I68
tp951
((dp952
g3
F-0.004277851729310278
sg4
F1.2932273544908446
s(dp953
g3
F0.1434259051371709
sg4
F0.1108541133848363
s(dp954
g3
F4.0898027363947325
sg4
F1.709354104232926
s(dp955
g3
F0.1904555986335117
sg4
F0.13919784340987273
stp956
s(I6
I12
tp957
((dp958
g3
F-0.031201286927868055
sg4
F1.2075173420816603
s(dp959
g3
F0.1325002684879334
sg4
F0.09526930698607172
s(dp960
g3
F0.6759939370615249
sg4
F1.2512322730554066
s(dp961
g3
F0.14240875814920706
sg4
F0.09402899403549325
stp962
s(I8
I47
tp963
((dp964
g3
F0.01100980197558199
sg4
F1.2802895883386811
s(dp965
g3
F0.14024063543781717
sg4
F0.09741339341575961
s(dp966
g3
F3.040614296776673
sg4
F1.5308629143555508
s(dp967
g3
F0.1712071438798335
sg4
F0.1272156782057582
stp968
s(I7
I9
tp969
((dp970
g3
F0.004230292493916377
sg4
F1.236671665805403
s(dp971
g3
F0.13673517105936595
sg4
F0.10266950908681416
s(dp972
g3
F0.5577320359168283
sg4
F1.2528814170637201
s(dp973
g3
F0.14121965440560447
sg4
F0.0958882584500228
stp974
s(I11
I74
tp975
((dp976
g3
F-0.0095683693234202
sg4
F1.2647214468748085
s(dp977
g3
F0.13871931809285365
sg4
F0.10093179963931953
s(dp978
g3
F4.153785235332401
sg4
F1.7784187779064657
s(dp979
g3
F0.1977157725969927
sg4
F0.13956940454460354
stp980
s(I12
I84
tp981
((dp982
g3
F-0.005569569793176576
sg4
F1.2414287711512288
s(dp983
g3
F0.1363471771129975
sg4
F0.0964870399682114
s(dp984
g3
F3.84830923098853
sg4
F1.9681853512727265
s(dp985
g3
F0.2162392050228843
sg4
F0.17826482501367047
stp986
s(I9
I46
tp987
((dp988
g3
F0.004661546060506172
sg4
F1.2955475647092216
s(dp989
g3
F0.1430214103814177
sg4
F0.10558613960308627
s(dp990
g3
F3.1102427502662167
sg4
F1.5549035893789336
s(dp991
g3
F0.17404102586888648
sg4
F0.12307786643066565
stp992
s(I6
I38
tp993
((dp994
g3
F0.01454822679132839
sg4
F1.217003221468514
s(dp995
g3
F0.1336437631403805
sg4
F0.09300578088758527
s(dp996
g3
F2.1215959456333247
sg4
F1.3936935618055857
s(dp997
g3
F0.1548184376348436
sg4
F0.10891518719377702
stp998
s(I10
I45
tp999
((dp1000
g3
F0.00865594865020558
sg4
F1.313849086293117
s(dp1001
g3
F0.1447378999229597
sg4
F0.10608667443225117
s(dp1002
g3
F3.159884005069288
sg4
F1.558518948702512
s(dp1003
g3
F0.1741570723139847
sg4
F0.12466206242440181
stp1004
s(I8
I53
tp1005
((dp1006
g3
F-0.019086254166420402
sg4
F1.2803847406181768
s(dp1007
g3
F0.14059178588896315
sg4
F0.10030414848682545
s(dp1008
g3
F3.4112471702357094
sg4
F1.5779472408287016
s(dp1009
g3
F0.17721158918824553
sg4
F0.12849596397818175
stp1010
s(I7
I39
tp1011
((dp1012
g3
F-0.03204682123788716
sg4
F1.269134727351438
s(dp1013
g3
F0.1401652828226333
sg4
F0.09756101066042433
s(dp1014
g3
F2.3912040294870227
sg4
F1.4431360977809056
s(dp1015
g3
F0.1599593704725666
sg4
F0.11607493673526703
stp1016
s(I13
I80
tp1017
((dp1018
g3
F0.0024739653428746955
sg4
F1.237179914183381
s(dp1019
g3
F0.13568130287012298
sg4
F0.10039266763055255
s(dp1020
g3
F4.043923154794709
sg4
F1.8082639027745058
s(dp1021
g3
F0.20188357995645445
sg4
F0.15325574772385042
stp1022
s(I11
I32
tp1023
((dp1024
g3
F-0.00985369426554461
sg4
F1.3164713801108243
s(dp1025
g3
F0.14505700844848557
sg4
F0.10473085086216216
s(dp1026
g3
F2.343210867190959
sg4
F1.44660323251546
s(dp1027
g3
F0.16052868865850045
sg4
F0.11393989918751968
stp1028
s(I9
I48
tp1029
((dp1030
g3
F-0.011914374482560497
sg4
F1.2854143081281686
s(dp1031
g3
F0.14130416887649777
sg4
F0.1025919124632797
s(dp1032
g3
F3.2375803112798245
sg4
F1.555995698245457
s(dp1033
g3
F0.17251167868028805
sg4
F0.11707087868536803
stp1034
s(I6
I56
tp1035
((dp1036
g3
F-0.011603421366030098
sg4
F1.2674171929352207
s(dp1037
g3
F0.13951744265939164
sg4
F0.09897323015736004
s(dp1038
g3
F3.290447715502843
sg4
F1.5606966529334796
s(dp1039
g3
F0.17313923108384177
sg4
F0.1208691384150723
stp1040
s(I12
I43
tp1041
((dp1042
g3
F-0.025025045476979146
sg4
F1.3415119855609374
s(dp1043
g3
F0.1480021742781399
sg4
F0.1099499604186267
s(dp1044
g3
F3.132560792996335
sg4
F1.5567211555956209
s(dp1045
g3
F0.17824595561395462
sg4
F0.12345450068527619
stp1046
s(I10
I55
tp1047
((dp1048
g3
F0.019227230887779
sg4
F1.2827224533628756
s(dp1049
g3
F0.14094709974145558
sg4
F0.10037206264299836
s(dp1050
g3
F3.679339335201478
sg4
F1.6325713932893742
s(dp1051
g3
F0.18310965200615392
sg4
F0.13025885536756987
stp1052
s(I8
I27
tp1053
((dp1054
g3
F0.0066274668112029644
sg4
F1.2745894187558306
s(dp1055
g3
F0.14082186895012283
sg4
F0.1011832233703236
s(dp1056
g3
F1.7340300982039807
sg4
F1.3844212345499312
s(dp1057
g3
F0.15463422866801602
sg4
F0.11534476551362804
stp1058
s(I7
I61
tp1059
((dp1060
g3
F-0.019798468053274565
sg4
F1.2878172246269033
s(dp1061
g3
F0.141804051174036
sg4
F0.10555675471423231
s(dp1062
g3
F3.6917737239690025
sg4
F1.6452067209518833
s(dp1063
g3
F0.1810215379126454
sg4
F0.12418869695180235
stp1064
s(I13
I42
tp1065
((dp1066
g3
F-0.00446123577691826
sg4
F1.322848683410528
s(dp1067
g3
F0.1482212005423748
sg4
F0.10933191804376474
s(dp1068
g3
F3.1210878535555437
sg4
F1.5585999106770192
s(dp1069
g3
F0.17480623508013138
sg4
F0.12409375367044839
stp1070
s(I11
I6
tp1071
((dp1072
g3
F0.011660111221713176
sg4
F1.3564669989194273
s(dp1073
g3
F0.1516056690258235
sg4
F0.10889933034600685
s(dp1074
g3
F0.4462233697741238
sg4
F1.3501882460113581
s(dp1075
g3
F0.14943975490140593
sg4
F0.10642167363776034
stp1076
s(I9
I26
tp1077
((dp1078
g3
F0.006714302019097396
sg4
F1.2842991267075616
s(dp1079
g3
F0.14206774987077264
sg4
F0.09811636896816178
s(dp1080
g3
F1.7948240341997685
sg4
F1.377761823468185
s(dp1081
g3
F0.15330809730270034
sg4
F0.10198494253734292
stp1082
s(I6
I82
tp1083
((dp1084
g3
F-0.00592631889173123
sg4
F1.2237470637639039
s(dp1085
g3
F0.13446720570677217
sg4
F0.09844288511047028
s(dp1086
g3
F3.906316466029641
sg4
F1.8617964023698481
s(dp1087
g3
F0.20428951546307506
sg4
F0.14605150108200926
stp1088
s(I12
I1
tp1089
((dp1090
g3
F-0.005312295859200122
sg4
F1.3970493075949917
s(dp1091
g3
F0.15393879770595797
sg4
F0.11305856109196166
s(dp1092
g3
F0.06994433728316296
sg4
F1.3639500479869817
s(dp1093
g3
F0.15034631979274582
sg4
F0.10577321474928547
stp1094
s(I10
I17
tp1095
((dp1096
g3
F0.03208445451614006
sg4
F1.2893282959936068
s(dp1097
g3
F0.14236507297636597
sg4
F0.09907583657853414
s(dp1098
g3
F1.2475948248742075
sg4
F1.3710964326088144
s(dp1099
g3
F0.15316412287182657
sg4
F0.111360066379381
stp1100
s(I13
I4
tp1101
((dp1102
g3
F-0.020004885353748558
sg4
F1.396574996951323
s(dp1103
g3
F0.15426443594081973
sg4
F0.11120655058773776
s(dp1104
g3
F0.31531626503104615
sg4
F1.3448720256059872
s(dp1105
g3
F0.14792922481425663
sg4
F0.10709592373916588
stp1106
s(I11
I28
tp1107
((dp1108
g3
F0.02978869940631057
sg4
F1.3068284453454986
s(dp1109
g3
F0.1439904938367379
sg4
F0.10090012081344069
s(dp1110
g3
F2.061908106672583
sg4
F1.4285156372088859
s(dp1111
g3
F0.15826193543833322
sg4
F0.10689724397164946
stp1112
s(I7
I82
tp1113
((dp1114
g3
F-0.003654199047286699
sg4
F1.2128410622894048
s(dp1115
g3
F0.13288120722309849
sg4
F0.09413934836010873
s(dp1116
g3
F3.9078300188477275
sg4
F1.8385048550460135
s(dp1117
g3
F0.20177469676108162
sg4
F0.15360709561993358
stp1118
s(I12
I31
tp1119
((dp1120
g3
F0.002676997736254627
sg4
F1.3457791996970405
s(dp1121
g3
F0.1484742188232998
sg4
F0.11328863413234036
s(dp1122
g3
F2.354371185417301
sg4
F1.4850594082218755
s(dp1123
g3
F0.16532348578289646
sg4
F0.1141020341843475
stp1124
s(I8
I71
tp1125
((dp1126
g3
F0.0043496456818175044
sg4
F1.245184071334928
s(dp1127
g3
F0.13639020719716943
sg4
F0.09419596988218137
s(dp1128
g3
F4.053751282568288
sg4
F1.731000226208494
s(dp1129
g3
F0.1935064299481115
sg4
F0.14145070682846494
stp1130
s(I13
I30
tp1131
((dp1132
g3
F-0.0080626969600327
sg4
F1.3282557003693416
s(dp1133
g3
F0.1455176426092032
sg4
F0.0997472317378224
s(dp1134
g3
F2.3265089519215914
sg4
F1.4998268141722466
s(dp1135
g3
F0.16674845209603228
sg4
F0.11443454656047791
stp1136
s(I9
I77
tp1137
((dp1138
g3
F-0.002310117506261089
sg4
F1.247594235086976
s(dp1139
g3
F0.13754143964654386
sg4
F0.09478773674891716
s(dp1140
g3
F4.128503123848622
sg4
F1.7942497083476934
s(dp1141
g3
F0.1978282042934958
sg4
F0.1430684748729556
stp1142
s(I10
I69
tp1143
((dp1144
g3
F-0.003028381907901445
sg4
F1.2920592330022715
s(dp1145
g3
F0.14160226491458683
sg4
F0.10564687624184321
s(dp1146
g3
F4.078658141010362
sg4
F1.7259208865665479
s(dp1147
g3
F0.1918072903410044
sg4
F0.14238870606640308
stp1148
s(I6
I7
tp1149
((dp1150
g3
F0.007192291175381449
sg4
F1.2336177163844646
s(dp1151
g3
F0.13571156541019574
sg4
F0.09465494877466962
s(dp1152
g3
F0.4022509026304575
sg4
F1.2410642127463145
s(dp1153
g3
F0.13747019948905825
sg4
F0.09353524058191409
stp1154
s(I7
I6
tp1155
((dp1156
g3
F-0.011835285260254569
sg4
F1.2371094136470635
s(dp1157
g3
F0.13579335604837328
sg4
F0.09481270606490211
s(dp1158
g3
F0.3630576637440157
sg4
F1.2504332747062297
s(dp1159
g3
F0.1379716022557933
sg4
F0.09428926040803964
stp1160
s(I11
I67
tp1161
((dp1162
g3
F0.008070009037841164
sg4
F1.2922313545197788
s(dp1163
g3
F0.14258115560991869
sg4
F0.10571246584657767
s(dp1164
g3
F4.065400424141465
sg4
F1.715735137701228
s(dp1165
g3
F0.19051059374298607
sg4
F0.14967436341854945
stp1166
s(I12
I83
tp1167
((dp1168
g3
F-0.0036509523914288744
sg4
F1.2428337972434313
s(dp1169
g3
F0.13636901796978584
sg4
F0.09551394825531423
s(dp1170
g3
F3.9439202594783387
sg4
F1.9261917985832537
s(dp1171
g3
F0.21322118304547866
sg4
F0.16301104340749373
stp1172
s(I9
I87
tp1173
((dp1174
g3
F0.02534401336123926
sg4
F1.1518306873824544
s(dp1175
g3
F0.1256455340432991
sg4
F0.09427611596698804
s(dp1176
g3
F3.383458173866792
sg4
F2.178667655077366
s(dp1177
g3
F0.2427709647334848
sg4
F0.17231325093088223
stp1178
s(I6
I25
tp1179
((dp1180
g3
F-0.010079894373338893
sg4
F1.201934548476506
s(dp1181
g3
F0.1333472226800101
sg4
F0.09733863779582108
s(dp1182
g3
F1.3588056009643594
sg4
F1.3351219847288835
s(dp1183
g3
F0.14756383268519158
sg4
F0.09937274735392798
stp1184
s(I8
I60
tp1185
((dp1186
g3
F0.015889259422755098
sg4
F1.300661211225397
s(dp1187
g3
F0.14341670891169628
sg4
F0.10871579159580713
s(dp1188
g3
F3.762944156699721
sg4
F1.6349739990892955
s(dp1189
g3
F0.18260075939724274
sg4
F0.12632294279495182
stp1190
s(I7
I28
tp1191
((dp1192
g3
F-0.01714476925955688
sg4
F1.2371114230594433
s(dp1193
g3
F0.13724151633788173
sg4
F0.09629742634958793
s(dp1194
g3
F1.684333051437529
sg4
F1.3748519036463742
s(dp1195
g3
F0.15484571881731846
sg4
F0.11032674457654934
stp1196
s(I13
I73
tp1197
((dp1198
g3
F-0.003004345240257167
sg4
F1.2857321456004094
s(dp1199
g3
F0.1410155781827771
sg4
F0.09830179008366358
s(dp1200
g3
F4.18513409844984
sg4
F1.7387454150629051
s(dp1201
g3
F0.19404441264642358
sg4
F0.13456393025246816
stp1202
s(I11
I89
tp1203
((dp1204
g3
F0.003950964504756405
sg4
F1.0729810300311386
s(dp1205
g3
F0.1148824670790764
sg4
F0.08282695810959662
s(dp1206
g3
F1.6986659285697323
sg4
F3.115443341660866
s(dp1207
g3
F0.6110046278734869
sg4
F0.43045718651861775
stp1208
s(I9
I57
tp1209
((dp1210
g3
F0.010612655795924297
sg4
F1.3045297533279667
s(dp1211
g3
F0.14255945273599857
sg4
F0.10175263952909208
s(dp1212
g3
F3.719358798148881
sg4
F1.6056822023058268
s(dp1213
g3
F0.17850492312376787
sg4
F0.1286096296831456
stp1214
s(I6
I51
tp1215
((dp1216
g3
F-0.004924916494891685
sg4
F1.2456325519773974
s(dp1217
g3
F0.1365341841283585
sg4
F0.09614397020359255
s(dp1218
g3
F2.930555638730538
sg4
F1.4458715732225376
s(dp1219
g3
F0.161597599473017
sg4
F0.11389138534176646
stp1220
s(I12
I34
tp1221
((dp1222
g3
F-0.01795046427486413
sg4
F1.3377596002858994
s(dp1223
g3
F0.1481401354513895
sg4
F0.10840467893357741
s(dp1224
g3
F2.544303210289523
sg4
F1.5202830164326004
s(dp1225
g3
F0.1697716633762969
sg4
F0.12605077892183558
stp1226
s(I10
I62
tp1227
((dp1228
g3
F0.012798595020524273
sg4
F1.3108891907601428
s(dp1229
g3
F0.14383564516344127
sg4
F0.102417036525972
s(dp1230
g3
F3.9380385047887483
sg4
F1.7383819982323225
s(dp1231
g3
F0.19307620786216706
sg4
F0.1451283985267966
stp1232
s(I8
I2
tp1233
((dp1234
g3
F0.0022718343206684644
sg4
F1.289420181254228
s(dp1235
g3
F0.14274499453886003
sg4
F0.10608014139222832
s(dp1236
g3
F0.105981062148778
sg4
F1.2602417360042033
s(dp1237
g3
F0.13860237860282443
sg4
F0.09643960621779812
stp1238
s(I7
I58
tp1239
((dp1240
g3
F-0.013836274592025521
sg4
F1.2969646205823484
s(dp1241
g3
F0.1432036601803548
sg4
F0.10392533595504427
s(dp1242
g3
F3.5496794723097587
sg4
F1.5986518557937364
s(dp1243
g3
F0.17735446219047368
sg4
F0.12662227176941776
stp1244
s(I13
I35
tp1245
((dp1246
g3
F-0.006084240869098312
sg4
F1.3219557756309348
s(dp1247
g3
F0.14582101537404357
sg4
F0.11161268915509748
s(dp1248
g3
F2.678611752962446
sg4
F1.4983528966171122
s(dp1249
g3
F0.16642365356245392
sg4
F0.11556457471496229
stp1250
s(I11
I63
tp1251
((dp1252
g3
F-0.005052206898391365
sg4
F1.2781859013826424
s(dp1253
g3
F0.14167037859180825
sg4
F0.09965499596026695
s(dp1254
g3
F3.979766852503176
sg4
F1.7179373719247453
s(dp1255
g3
F0.19055126800380595
sg4
F0.14189631199703445
stp1256
s(I9
I3
tp1257
((dp1258
g3
F-0.0075659195719480765
sg4
F1.2929842843633255
s(dp1259
g3
F0.14275627642176686
sg4
F0.10458845729465527
s(dp1260
g3
F0.21209158015300678
sg4
F1.31262143391409
s(dp1261
g3
F0.1451037125059067
sg4
F0.10390589959518637
stp1262
s(I6
I85
tp1263
((dp1264
g3
F0.0012644460744459796
sg4
F1.1718744415912947
s(dp1265
g3
F0.1278740770417603
sg4
F0.09285579995492166
s(dp1266
g3
F3.6299563620206072
sg4
F2.0416689562286336
s(dp1267
g3
F0.22618198092891095
sg4
F0.174818752670019
stp1268
s(I12
I56
tp1269
((dp1270
g3
F-0.002623986169353998
sg4
F1.3323064670957505
s(dp1271
g3
F0.14701778635366902
sg4
F0.11262597268310703
s(dp1272
g3
F3.789725924801825
sg4
F1.6997363817407583
s(dp1273
g3
F0.1928056953846884
sg4
F0.14725845652389113
stp1274
s(I10
I24
tp1275
((dp1276
g3
F-0.036060428702267666
sg4
F1.3365754148832651
s(dp1277
g3
F0.14800954935432836
sg4
F0.10715545315759478
s(dp1278
g3
F1.720355274223457
sg4
F1.3840176119787961
s(dp1279
g3
F0.15511568565430212
sg4
F0.10979575444762557
stp1280
s(I13
I61
tp1281
((dp1282
g3
F-0.008024724811288353
sg4
F1.3335756597562658
s(dp1283
g3
F0.14772089764519514
sg4
F0.11097314051141405
s(dp1284
g3
F4.004288706215556
sg4
F1.6785696672430825
s(dp1285
g3
F0.18758176713075736
sg4
F0.12862287033098363
stp1286
s(I11
I21
tp1287
((dp1288
g3
F0.006545056041050934
sg4
F1.3185473754474857
s(dp1289
g3
F0.14576753507635554
sg4
F0.10002163686658916
s(dp1290
g3
F1.5729838011580242
sg4
F1.4297329282334947
s(dp1291
g3
F0.16025364577145917
sg4
F0.1110640001126254
stp1292
s(I7
I75
tp1293
((dp1294
g3
F-0.008447300792931434
sg4
F1.3063880433616735
s(dp1295
g3
F0.14421476284316143
sg4
F0.10427128499055305
s(dp1296
g3
F4.100849960488881
sg4
F1.7266369376909834
s(dp1297
g3
F0.19338326746481815
sg4
F0.13984738940947639
stp1298
s(I12
I22
tp1299
((dp1300
g3
F-0.004423507835628171
sg4
F1.3771316173289527
s(dp1301
g3
F0.15131695685421148
sg4
F0.11156946053193761
s(dp1302
g3
F1.706261996819812
sg4
F1.4219162694120508
s(dp1303
g3
F0.15711884472883542
sg4
F0.1074233066024628
stp1304
s(I8
I78
tp1305
((dp1306
g3
F0.017915147619584015
sg4
F1.2565724892218715
s(dp1307
g3
F0.13729545358912026
sg4
F0.09533541078383889
s(dp1308
g3
F4.103858663593874
sg4
F1.7642213654709524
s(dp1309
g3
F0.19500629131068248
sg4
F0.13693971716112607
stp1310
s(I13
I23
tp1311
((dp1312
g3
F-0.002834889941233376
sg4
F1.3403583823153002
s(dp1313
g3
F0.14749163448014657
sg4
F0.10969187592950291
s(dp1314
g3
F1.8188510494157741
sg4
F1.4142089378947937
s(dp1315
g3
F0.15835271802787942
sg4
F0.1117235172354557
stp1316
s(I10
I76
tp1317
((dp1318
g3
F-0.025102509159137587
sg4
F1.2608516692743674
s(dp1319
g3
F0.13870365096537424
sg4
F0.10183778479650385
s(dp1320
g3
F4.182603137331189
sg4
F1.7950808622535166
s(dp1321
g3
F0.19778481873318698
sg4
F0.1391926150087841
stp1322
s(I8
I84
tp1323
((dp1324
g3
F-0.017463624756176577
sg4
F1.2079533441788037
s(dp1325
g3
F0.13204374768498606
sg4
F0.09606132815555324
s(dp1326
g3
F3.749693764734495
sg4
F1.9785577730049098
s(dp1327
g3
F0.21899120864070154
sg4
F0.16743783888352537
stp1328
s(I12
I74
tp1329
((dp1330
g3
F0.007565269511037531
sg4
F1.263094020465288
s(dp1331
g3
F0.1381202949837843
sg4
F0.09777888617078079
s(dp1332
g3
F4.148432316758694
sg4
F1.7341049391663816
s(dp1333
g3
F0.1921414383813027
sg4
F0.14163139703397432
stp1334
s(I9
I88
tp1335
((dp1336
g3
F0.02737010033063214
sg4
F1.1396494507275994
s(dp1337
g3
F0.12330554282647288
sg4
F0.09315083505547817
s(dp1338
g3
F3.1502095270143595
sg4
F2.157931555965777
s(dp1339
g3
F0.24010775580951393
sg4
F0.16868149322716908
stp1340
s(I10
I86
tp1341
((dp1342
g3
F0.001083580710086629
sg4
F1.1814012383863655
s(dp1343
g3
F0.1293644766621025
sg4
F0.09925791491044134
s(dp1344
g3
F3.551927450854884
sg4
F2.11338967068866
s(dp1345
g3
F0.24172992517083358
sg4
F0.18617479632970302
stp1346
s(I6
I16
tp1347
((dp1348
g3
F0.0060153885206672975
sg4
F1.2126842306605292
s(dp1349
g3
F0.1332191141308967
sg4
F0.09502541706002288
s(dp1350
g3
F0.9031433417564241
sg4
F1.2637995278937373
s(dp1351
g3
F0.14254661163041327
sg4
F0.08921418088834021
stp1352
s(I8
I35
tp1353
((dp1354
g3
F-0.0051477086080231604
sg4
F1.2611825812021982
s(dp1355
g3
F0.13886394520824935
sg4
F0.09741957655492473
s(dp1356
g3
F2.2762170475595873
sg4
F1.4265736151828552
s(dp1357
g3
F0.15877619640342977
sg4
F0.10864072293590776
stp1358
s(I7
I21
tp1359
((dp1360
g3
F0.010503177122007434
sg4
F1.2517913187969967
s(dp1361
g3
F0.13803542534225832
sg4
F0.09742742372811386
s(dp1362
g3
F1.2457891164868857
sg4
F1.3270605292506046
s(dp1363
g3
F0.14684092365958912
sg4
F0.10131770963250786
stp1364
s(I13
I66
tp1365
((dp1366
g3
F-0.005570221936033626
sg4
F1.2871251534449095
s(dp1367
g3
F0.142882966877462
sg4
F0.1049693371643945
s(dp1368
g3
F4.075365249000169
sg4
F1.7316791765394737
s(dp1369
g3
F0.1940970289772661
sg4
F0.14309242368632136
stp1370
s(I9
I34
tp1371
((dp1372
g3
F-0.020468971887854015
sg4
F1.2919697542423667
s(dp1373
g3
F0.14280081787787163
sg4
F0.10309848006666167
s(dp1374
g3
F2.330122830505185
sg4
F1.450783014635065
s(dp1375
g3
F0.16287517515251748
sg4
F0.11224363403063664
stp1376
s(I6
I42
tp1377
((dp1378
g3
F0.02250646114487309
sg4
F1.234883853067939
s(dp1379
g3
F0.13705447360564904
sg4
F0.10636074096772474
s(dp1380
g3
F2.3664417321457645
sg4
F1.3986855720190468
s(dp1381
g3
F0.15435291745129964
sg4
F0.10720043479443186
stp1382
s(I10
I57
tp1383
((dp1384
g3
F-0.0005521051279984146
sg4
F1.317730449170481
s(dp1385
g3
F0.14547017745208646
sg4
F0.1050786773548239
s(dp1386
g3
F3.8173303902419686
sg4
F1.6429604298612275
s(dp1387
g3
F0.18141398545680998
sg4
F0.1283242644103576
stp1388
s(I8
I9
tp1389
((dp1390
g3
F-0.0011688439441261966
sg4
F1.2450337224835706
s(dp1391
g3
F0.1366405114077336
sg4
F0.096484699687572
s(dp1392
g3
F0.5677651289249617
sg4
F1.325127425735952
s(dp1393
g3
F0.14659648488348165
sg4
F0.10394688032942878
stp1394
s(I7
I51
tp1395
((dp1396
g3
F-0.006231104168086032
sg4
F1.2565620634826358
s(dp1397
g3
F0.14003458114556588
sg4
F0.09546369943215771
s(dp1398
g3
F3.133347493119932
sg4
F1.486527363505998
s(dp1399
g3
F0.16559417836535806
sg4
F0.11978027669187818
stp1400
s(I11
I52
tp1401
((dp1402
g3
F0.011915112152292462
sg4
F1.3205603723660153
s(dp1403
g3
F0.14533164641200974
sg4
F0.10784790420840573
s(dp1404
g3
F3.584333246439046
sg4
F1.6569538689177539
s(dp1405
g3
F0.18457356223443888
sg4
F0.14277311566324413
stp1406
s(I9
I4
tp1407
((dp1408
g3
F-0.0013440466711328591
sg4
F1.3185277019351371
s(dp1409
g3
F0.14691397863025002
sg4
F0.11087632352798815
s(dp1410
g3
F0.287037389992046
sg4
F1.2937982115688516
s(dp1411
g3
F0.14291108456237978
sg4
F0.1031542601957105
stp1412
s(I6
I76
tp1413
((dp1414
g3
F-0.010177314747484956
sg4
F1.236829120996795
s(dp1415
g3
F0.135788443704843
sg4
F0.10014239941011538
s(dp1416
g3
F3.9917318555022163
sg4
F1.7700349773859392
s(dp1417
g3
F0.19600829878043502
sg4
F0.14229148905162048
stp1418
s(I12
I55
tp1419
((dp1420
g3
F0.04469631570916843
sg4
F1.3057125362936661
s(dp1421
g3
F0.143758517397425
sg4
F0.1059917204797225
s(dp1422
g3
F3.7601637251883986
sg4
F1.6688145740833573
s(dp1423
g3
F0.18431234287847076
sg4
F0.12446631103245576
stp1424
s(I10
I3
tp1425
((dp1426
g3
F0.007071930766564094
sg4
F1.3213647393534491
s(dp1427
g3
F0.14613422171071255
sg4
F0.10519296769770992
s(dp1428
g3
F0.22043983998344707
sg4
F1.310197089413573
s(dp1429
g3
F0.14493502938860692
sg4
F0.10135246511860863
stp1430
s(I13
I54
tp1431
((dp1432
g3
F0.01437223950292088
sg4
F1.3180559779083691
s(dp1433
g3
F0.1444854059154269
sg4
F0.10013686450352499
s(dp1434
g3
F3.738709206498414
sg4
F1.6706398643872393
s(dp1435
g3
F0.18543311081479263
sg4
F0.1310953385182384
stp1436
s(I11
I10
tp1437
((dp1438
g3
F-0.0050409395144764835
sg4
F1.3338089266388324
s(dp1439
g3
F0.14764898253359288
sg4
F0.1133490081608185
s(dp1440
g3
F0.7579264857408294
sg4
F1.3684155847778277
s(dp1441
g3
F0.15061404560562308
sg4
F0.09951739593354614
stp1442
s(I7
I64
tp1443
((dp1444
g3
F0.014123827126404809
sg4
F1.276947735866798
s(dp1445
g3
F0.14040164718173753
sg4
F0.09565766794953201
s(dp1446
g3
F3.848709495835215
sg4
F1.632675852418795
s(dp1447
g3
F0.18425682240903773
sg4
F0.12913647987186794
stp1448
s(I12
I13
tp1449
((dp1450
g3
F0.006929363497271357
sg4
F1.3312151483586083
s(dp1451
g3
F0.14824798234711245
sg4
F0.10747289884790456
s(dp1452
g3
F0.9856239559633229
sg4
F1.3859105837460541
s(dp1453
g3
F0.1542605126984259
sg4
F0.11620807881864148
stp1454
s(I13
I16
tp1455
((dp1456
g3
F-0.00798620628292579
sg4
F1.3464360204905932
s(dp1457
g3
F0.14752897277884885
sg4
F0.10361402917684692
s(dp1458
g3
F1.250977786061557
sg4
F1.4096340751899996
s(dp1459
g3
F0.15555824811744556
sg4
F0.10863243797679545
stp1460
s(I12
I65
tp1461
((dp1462
g3
F0.008912502547921752
sg4
F1.2960828883691855
s(dp1463
g3
F0.1431570925008524
sg4
F0.10578612116230157
s(dp1464
g3
F4.040645926158892
sg4
F1.7431896506793227
s(dp1465
g3
F0.19427453513428006
sg4
F0.1404954999717104
stp1466
s(I9
I65
tp1467
((dp1468
g3
F-0.005409329130308893
sg4
F1.2880644930672243
s(dp1469
g3
F0.14229366314216946
sg4
F0.111288254065385
s(dp1470
g3
F4.024249897531131
sg4
F1.6789709462752354
s(dp1471
g3
F0.18881819393852384
sg4
F0.13551876571383448
stp1472
s(I10
I81
tp1473
((dp1474
g3
F-0.011248978274612353
sg4
F1.2442205435145264
s(dp1475
g3
F0.1362315649406376
sg4
F0.09712370970732409
s(dp1476
g3
F4.010443237236613
sg4
F1.8426368922274368
s(dp1477
g3
F0.20365822685518253
sg4
F0.15663839231532262
stp1478
s(I6
I11
tp1479
((dp1480
g3
F0.016790828574790417
sg4
F1.20313586507744
s(dp1481
g3
F0.13251399407240794
sg4
F0.09342559407038209
s(dp1482
g3
F0.6038754094036407
sg4
F1.3014999217959589
s(dp1483
g3
F0.14612467668040785
sg4
F0.1095407974897159
stp1484
s(I8
I42
tp1485
((dp1486
g3
F0.01309898886186378
sg4
F1.2891442979155285
s(dp1487
g3
F0.1426574724135079
sg4
F0.10278236430893051
s(dp1488
g3
F2.728418608803918
sg4
F1.4582341663269998
s(dp1489
g3
F0.16411757206093425
sg4
F0.11608689884050194
stp1490
s(I7
I18
tp1491
((dp1492
g3
F0.006211705619782126
sg4
F1.2417428908212398
s(dp1493
g3
F0.13750799656545543
sg4
F0.10164594410444949
s(dp1494
g3
F1.0845554511231987
sg4
F1.3090816259935494
s(dp1495
g3
F0.14747729111176477
sg4
F0.09794144886445721
stp1496
s(I11
I87
tp1497
((dp1498
g3
F0.005463335072303899
sg4
F1.1357927438520283
s(dp1499
g3
F0.12384837773178564
sg4
F0.08732392920191312
s(dp1500
g3
F3.2046336021278004
sg4
F2.3298262237055853
s(dp1501
g3
F0.27036103169187964
sg4
F0.22867052886857486
stp1502
s(I9
I43
tp1503
((dp1504
g3
F-0.02160934180070151
sg4
F1.2852449771009955
s(dp1505
g3
F0.14131792783035435
sg4
F0.09852890962201011
s(dp1506
g3
F2.8945185303339547
sg4
F1.5359744974345044
s(dp1507
g3
F0.17057567920556171
sg4
F0.12733196557538662
stp1508
s(I6
I45
tp1509
((dp1510
g3
F0.012219007626611322
sg4
F1.2174705615732893
s(dp1511
g3
F0.1345528073288636
sg4
F0.09821174740992
s(dp1512
g3
F2.560358636021075
sg4
F1.4337859090510212
s(dp1513
g3
F0.15898956106323414
sg4
F0.11165412620141624
stp1514
s(I10
I32
tp1515
((dp1516
g3
F-0.011429474096123382
sg4
F1.316385565868724
s(dp1517
g3
F0.14484724559192885
sg4
F0.10560161526103107
s(dp1518
g3
F2.263474121368563
sg4
F1.410014686921178
s(dp1519
g3
F0.1588624097284892
sg4
F0.10654489272609136
stp1520
s(I8
I48
tp1521
((dp1522
g3
F-0.003308386630552551
sg4
F1.2873269781671515
s(dp1523
g3
F0.14192535171244586
sg4
F0.1014305329393338
s(dp1524
g3
F3.1306217426308214
sg4
F1.5351827807175331
s(dp1525
g3
F0.1711288704825229
sg4
F0.11774098422038681
stp1526
s(I7
I40
tp1527
((dp1528
g3
F0.015191852020785657
sg4
F1.241585355883186
s(dp1529
g3
F0.13792520920411033
sg4
F0.09899035521916777
s(dp1530
g3
F2.432541250056381
sg4
F1.4440110242159414
s(dp1531
g3
F0.16057382079525784
sg4
F0.11344309538450048
stp1532
s(I13
I85
tp1533
((dp1534
g3
F-0.007509079446007094
sg4
F1.222771417845838
s(dp1535
g3
F0.1338221967388339
sg4
F0.0980059419304321
s(dp1536
g3
F3.717556875357296
sg4
F2.0115423805473336
s(dp1537
g3
F0.22120111851259416
sg4
F0.17494184758936238
stp1538
s(I11
I45
tp1539
((dp1540
g3
F0.013538500338050596
sg4
F1.310099352956049
s(dp1541
g3
F0.1445429998677461
sg4
F0.1078231652579259
s(dp1542
g3
F3.2280295414005584
sg4
F1.5343316748117086
s(dp1543
g3
F0.1713106261738231
sg4
F0.11935758208526193
stp1544
s(I9
I13
tp1545
((dp1546
g3
F0.028161541867438356
sg4
F1.305776473600524
s(dp1547
g3
F0.14570674823148871
sg4
F0.10357657120522468
s(dp1548
g3
F0.8898856957783232
sg4
F1.337482856380317
s(dp1549
g3
F0.147684565235072
sg4
F0.1018089475618763
stp1550
s(I6
I71
tp1551
((dp1552
g3
F0.004221805086091823
sg4
F1.2382559794252084
s(dp1553
g3
F0.13661884362372345
sg4
F0.09727508721006461
s(dp1554
g3
F3.9442850483759386
sg4
F1.6797298737933715
s(dp1555
g3
F0.185893250026552
sg4
F0.13090870150723843
stp1556
s(I12
I46
tp1557
((dp1558
g3
F0.004333009631129148
sg4
F1.3644163684595092
s(dp1559
g3
F0.15123871679757817
sg4
F0.11113018436184663
s(dp1560
g3
F3.30987147535091
sg4
F1.6022347545570401
s(dp1561
g3
F0.18058241972619138
sg4
F0.12553525449444813
stp1562
s(I10
I10
tp1563
((dp1564
g3
F-0.012031130394359546
sg4
F1.3310184432221897
s(dp1565
g3
F0.1469577494688884
sg4
F0.10273179107595531
s(dp1566
g3
F0.7216292299366014
sg4
F1.3646758281657827
s(dp1567
g3
F0.1514569116817479
sg4
F0.10191619565459997
stp1568
s(I8
I22
tp1569
((dp1570
g3
F-0.0054886043686723784
sg4
F1.2836940143475095
s(dp1571
g3
F0.14114774245857709
sg4
F0.09876790158204729
s(dp1572
g3
F1.442877903366833
sg4
F1.3862947253355626
s(dp1573
g3
F0.1576651680717971
sg4
F0.10759218465388043
stp1574
s(I13
I47
tp1575
((dp1576
g3
F0.004846113810863084
sg4
F1.341253946137567
s(dp1577
g3
F0.14778874421879434
sg4
F0.10516566042374753
s(dp1578
g3
F3.380372956363603
sg4
F1.6294509449303318
s(dp1579
g3
F0.18023730564229057
sg4
F0.13293067485285537
stp1580
s(I11
I3
tp1581
((dp1582
g3
F-0.005260696586407598
sg4
F1.3157835416684653
s(dp1583
g3
F0.14464155053521155
sg4
F0.10931126951451708
s(dp1584
g3
F0.21014417844402167
sg4
F1.3652194893253073
s(dp1585
g3
F0.15090079866720219
sg4
F0.10764287147876694
stp1586
s(I9
I23
tp1587
((dp1588
g3
F-0.017316071795437482
sg4
F1.2820909011329356
s(dp1589
g3
F0.1412258854029853
sg4
F0.10315342871634647
s(dp1590
g3
F1.5714793015040525
sg4
F1.3712931535244834
s(dp1591
g3
F0.15226932376748614
sg4
F0.10144397430746122
stp1592
s(I6
I89
tp1593
((dp1594
g3
F0.01907307757831167
sg4
F1.0816353393404228
s(dp1595
g3
F0.11657798303588496
sg4
F0.08151884759956007
s(dp1596
g3
F2.809262445209942
sg4
F2.181424776420595
s(dp1597
g3
F0.25066724421010056
sg4
F0.15505644524134543
stp1598
s(I12
I4
tp1599
((dp1600
g3
F-0.019332813018439476
sg4
F1.3631907446910891
s(dp1601
g3
F0.15065005955181898
sg4
F0.10970307512775013
s(dp1602
g3
F0.32260868485463434
sg4
F1.3231718889015798
s(dp1603
g3
F0.14573472487163863
sg4
F0.10423097462137987
stp1604
s(I10
I20
tp1605
((dp1606
g3
F0.009107111121086087
sg4
F1.278068473209692
s(dp1607
g3
F0.13984421317850992
sg4
F0.09903970145586516
s(dp1608
g3
F1.4075995015912528
sg4
F1.4018035684479326
s(dp1609
g3
F0.1560903562964251
sg4
F0.11257691875379094
stp1610
s(I13
I9
tp1611
((dp1612
g3
F-0.0242455091766397
sg4
F1.3373392850578019
s(dp1613
g3
F0.1472926848692938
sg4
F0.10460011830456672
s(dp1614
g3
F0.7018833928935311
sg4
F1.3840933788043976
s(dp1615
g3
F0.15244435454749883
sg4
F0.10699080235394343
stp1616
s(I11
I25
tp1617
((dp1618
g3
F-0.008970806512032525
sg4
F1.2828771444149623
s(dp1619
g3
F0.14088108601147786
sg4
F0.10090110223213278
s(dp1620
g3
F1.8608578375517038
sg4
F1.4574004013424884
s(dp1621
g3
F0.16133774787210786
sg4
F0.11290144972340499
stp1622
s(I7
I87
tp1623
((dp1624
g3
F-0.009411653969765066
sg4
F1.115390089372232
s(dp1625
g3
F0.12069335067332942
sg4
F0.08575257962285865
s(dp1626
g3
F3.4705063876702598
sg4
F2.153795890435118
s(dp1627
g3
F0.23755056662029173
sg4
F0.1605118141177504
stp1628
s(I8
I66
tp1629
((dp1630
g3
F0.0025225697830772997
sg4
F1.2504515972500987
s(dp1631
g3
F0.13784027437432778
sg4
F0.10057405286068355
s(dp1632
g3
F3.992163126009232
sg4
F1.6617959029595988
s(dp1633
g3
F0.18558150629019332
sg4
F0.13076245996492575
stp1634
s(I9
I74
tp1635
((dp1636
g3
F0.002136035676568948
sg4
F1.2737753237046934
s(dp1637
g3
F0.13985062137118975
sg4
F0.1005571974505105
s(dp1638
g3
F4.162085487851035
sg4
F1.7324707621277866
s(dp1639
g3
F0.19004065469984566
sg4
F0.13462053731180135
stp1640
s(I10
I88
tp1641
((dp1642
g3
F0.01710624366331137
sg4
F1.1397551120246918
s(dp1643
g3
F0.12391633238112415
sg4
F0.09302406687370446
s(dp1644
g3
F2.8583039694008905
sg4
F2.501358811009249
s(dp1645
g3
F0.3103227443975711
sg4
F0.2519593979460675
stp1646
s(I6
I2
tp1647
((dp1648
g3
F0.01306867788881938
sg4
F1.2073835017709342
s(dp1649
g3
F0.1321584622698488
sg4
F0.09335008321646376
s(dp1650
g3
F0.1050296983730461
sg4
F1.1982733370929863
s(dp1651
g3
F0.13148586950458319
sg4
F0.09203933370088047
stp1652
s(I7
I11
tp1653
((dp1654
g3
F-0.006908979120386016
sg4
F1.233165159356886
s(dp1655
g3
F0.1358628714226519
sg4
F0.09595756819673096
s(dp1656
g3
F0.6603194479825669
sg4
F1.3110498040034333
s(dp1657
g3
F0.14590732475347
sg4
F0.09916170188858986
stp1658
s(I11
I76
tp1659
((dp1660
g3
F-0.0033667828613361817
sg4
F1.2642064585742236
s(dp1661
g3
F0.13892713214126196
sg4
F0.10330348846182014
s(dp1662
g3
F4.160720736167915
sg4
F1.735302760510795
s(dp1663
g3
F0.1914191712394584
sg4
F0.13726293026349523
stp1664
s(I12
I86
tp1665
((dp1666
g3
F-0.010334886331306858
sg4
F1.173478507608949
s(dp1667
g3
F0.1275882463418503
sg4
F0.09395112941067152
s(dp1668
g3
F3.5216524416466406
sg4
F2.140670792015193
s(dp1669
g3
F0.24269529501921916
sg4
F0.1913022668591403
stp1670
s(I9
I44
tp1671
((dp1672
g3
F-0.021550129095146087
sg4
F1.3245089451848249
s(dp1673
g3
F0.14597264588713793
sg4
F0.10431753970063595
s(dp1674
g3
F2.980505910284263
sg4
F1.5180574205475326
s(dp1675
g3
F0.16905996491975284
sg4
F0.1141409389376763
stp1676
s(I6
I36
tp1677
((dp1678
g3
F0.017870002857266698
sg4
F1.198537742158034
s(dp1679
g3
F0.13247060935669913
sg4
F0.09300556865596143
s(dp1680
g3
F2.0010882010759783
sg4
F1.3836090895646491
s(dp1681
g3
F0.1558140394279941
sg4
F0.11416496602199389
stp1682
s(I10
I43
tp1683
((dp1684
g3
F0.011036103145880771
sg4
F1.3191754122327755
s(dp1685
g3
F0.1456385505075466
sg4
F0.10392638172581958
s(dp1686
g3
F3.0264002738959697
sg4
F1.5341833378757455
s(dp1687
g3
F0.1712135382764406
sg4
F0.1244514396177332
stp1688
s(I8
I55
tp1689
((dp1690
g3
F-0.0028819033653241233
sg4
F1.2774087865926123
s(dp1691
g3
F0.14091084760809058
sg4
F0.10132091089716744
s(dp1692
g3
F3.507145927222685
sg4
F1.5950163483472686
s(dp1693
g3
F0.17665833200665215
sg4
F0.1305043150533377
stp1694
s(I7
I33
tp1695
((dp1696
g3
F0.018238943782857397
sg4
F1.2491391871949444
s(dp1697
g3
F0.1376353428929737
sg4
F0.09721788300871814
s(dp1698
g3
F1.9914701937853083
sg4
F1.3571571204806374
s(dp1699
g3
F0.15018486777233986
sg4
F0.10692096414836993
stp1700
s(I13
I78
tp1701
((dp1702
g3
F0.0026400150405891942
sg4
F1.2917050978979638
s(dp1703
g3
F0.14206348494010912
sg4
F0.10318175277086983
s(dp1704
g3
F4.141599464272252
sg4
F1.787183437039329
s(dp1705
g3
F0.1981468776095956
sg4
F0.14090826074558715
stp1706
s(I11
I34
tp1707
((dp1708
g3
F-0.014113758526985376
sg4
F1.323109413303871
s(dp1709
g3
F0.1455462012775981
sg4
F0.10783152638816063
s(dp1710
g3
F2.4803219777478946
sg4
F1.5083991334421283
s(dp1711
g3
F0.16859552290566615
sg4
F0.12263681354987632
stp1712
s(I9
I54
tp1713
((dp1714
g3
F0.003182624147873181
sg4
F1.2973459816216981
s(dp1715
g3
F0.1429947166410136
sg4
F0.10211155832803831
s(dp1716
g3
F3.560698236859743
sg4
F1.6335629606607895
s(dp1717
g3
F0.18129237198373316
sg4
F0.13666188143477354
stp1718
s(I6
I62
tp1719
((dp1720
g3
F-0.012815550819825328
sg4
F1.2407244532554864
s(dp1721
g3
F0.1366087148599247
sg4
F0.09423444261998437
s(dp1722
g3
F3.630999095000103
sg4
F1.584905140286991
s(dp1723
g3
F0.17531456097837417
sg4
F0.11747075469262958
stp1724
s(I12
I37
tp1725
((dp1726
g3
F-0.0005931361365099086
sg4
F1.3278779778480954
s(dp1727
g3
F0.14597132357546116
sg4
F0.10882278982419802
s(dp1728
g3
F2.7473022232968876
sg4
F1.5530652990716032
s(dp1729
g3
F0.17437308174309107
sg4
F0.12726987071888696
stp1730
s(I10
I53
tp1731
((dp1732
g3
F-0.0014513160974917172
sg4
F1.3047690243887882
s(dp1733
g3
F0.14415393079447558
sg4
F0.1044243711071734
s(dp1734
g3
F3.604926982803539
sg4
F1.64670621280973
s(dp1735
g3
F0.1830835002787179
sg4
F0.12525826046261612
stp1736
s(I8
I29
tp1737
((dp1738
g3
F-0.010673800654967924
sg4
F1.2639300917756173
s(dp1739
g3
F0.13996438755272556
sg4
F0.10174615074059035
s(dp1740
g3
F1.8522735983232472
sg4
F1.3719250938018395
s(dp1741
g3
F0.15261900300227182
sg4
F0.10262634008319405
stp1742
s(I7
I63
tp1743
((dp1744
g3
F-0.0026831699413125687
sg4
F1.2714790863631555
s(dp1745
g3
F0.14050405909303376
sg4
F0.09733082699571782
s(dp1746
g3
F3.7956865350476887
sg4
F1.6148508540302762
s(dp1747
g3
F0.180268898764814
sg4
F0.12295424010276934
stp1748
s(I13
I40
tp1749
((dp1750
g3
F0.0012525291104954484
sg4
F1.3083027192133623
s(dp1751
g3
F0.14378598492103378
sg4
F0.09756566967579228
s(dp1752
g3
F2.9777242683427536
sg4
F1.5498744698103433
s(dp1753
g3
F0.17227038825350305
sg4
F0.12361131462804908
stp1754
s(I11
I56
tp1755
((dp1756
g3
F-0.03183354029165475
sg4
F1.3522401570309184
s(dp1757
g3
F0.14908090643070115
sg4
F0.10784380774372004
s(dp1758
g3
F3.786011602411964
sg4
F1.6396192471584319
s(dp1759
g3
F0.18222423246972053
sg4
F0.1286477578601103
stp1760
s(I9
I24
tp1761
((dp1762
g3
F-0.0056015842704844054
sg4
F1.3324704278334911
s(dp1763
g3
F0.14756329077222863
sg4
F0.11210206829304525
s(dp1764
g3
F1.6105056086299392
sg4
F1.3767415703522268
s(dp1765
g3
F0.15390677932238717
sg4
F0.10882785438457176
stp1766
s(I6
I80
tp1767
((dp1768
g3
F0.0027401356487659623
sg4
F1.2053832301289604
s(dp1769
g3
F0.1328931578156891
sg4
F0.09913514637444498
s(dp1770
g3
F3.9745120677564643
sg4
F1.7932919444700224
s(dp1771
g3
F0.20005818083366833
sg4
F0.14560307815194884
stp1772
s(I12
I3
tp1773
((dp1774
g3
F0.011982708528162966
sg4
F1.348674520920897
s(dp1775
g3
F0.14878032893127424
sg4
F0.11161054808243287
s(dp1776
g3
F0.22646035487354288
sg4
F1.3617581060797899
s(dp1777
g3
F0.1503896598388923
sg4
F0.10628014076717784
stp1778
s(I10
I31
tp1779
((dp1780
g3
F-0.0030731835173737343
sg4
F1.2960036483984383
s(dp1781
g3
F0.14322140809805828
sg4
F0.10251847909527068
s(dp1782
g3
F2.2130931106644405
sg4
F1.4217837281758003
s(dp1783
g3
F0.1608739842118183
sg4
F0.10692980522301343
stp1784
s(I13
I2
tp1785
((dp1786
g3
F0.007211988487099585
sg4
F1.3461160699111827
s(dp1787
g3
F0.1488360825948737
sg4
F0.10273334785525767
s(dp1788
g3
F0.14794002608359103
sg4
F1.352569992347331
s(dp1789
g3
F0.14882622384774247
sg4
F0.10879964843996759
stp1790
s(I11
I30
tp1791
((dp1792
g3
F-0.02326388850990946
sg4
F1.3131556699641247
s(dp1793
g3
F0.14422821665221502
sg4
F0.0997056833444876
s(dp1794
g3
F2.208554809137012
sg4
F1.4824423515065697
s(dp1795
g3
F0.164578552321069
sg4
F0.11475601664650736
stp1796
s(I7
I76
tp1797
((dp1798
g3
F-0.0016251419607939965
sg4
F1.2453487391629237
s(dp1799
g3
F0.13749831347006197
sg4
F0.10066355552694817
s(dp1800
g3
F4.092946028948515
sg4
F1.7295700144600212
s(dp1801
g3
F0.19143107259529168
sg4
F0.14151028510719377
stp1802
s(I12
I25
tp1803
((dp1804
g3
F-0.012526152541456614
sg4
F1.3123031515275243
s(dp1805
g3
F0.14442989279600177
sg4
F0.10327847157253844
s(dp1806
g3
F1.889027448254852
sg4
F1.5093356602340895
s(dp1807
g3
F0.16965238250109782
sg4
F0.1275749113251664
stp1808
s(I8
I73
tp1809
((dp1810
g3
F-0.023968039723500922
sg4
F1.2813267085855755
s(dp1811
g3
F0.14111069929881637
sg4
F0.1013825360619276
s(dp1812
g3
F4.082333671264431
sg4
F1.7423422531343302
s(dp1813
g3
F0.1923158855415248
sg4
F0.14159332682702053
stp1814
s(I13
I28
tp1815
((dp1816
g3
F0.00967173161108903
sg4
F1.3403335388402313
s(dp1817
g3
F0.1480745648420499
sg4
F0.10199242449028179
s(dp1818
g3
F2.1770963615453827
sg4
F1.4552847183927842
s(dp1819
g3
F0.16184989255263682
sg4
F0.1116060967900796
stp1820
s(I10
I67
tp1821
((dp1822
g3
F0.01616240961446236
sg4
F1.2858238354443685
s(dp1823
g3
F0.14167451117542074
sg4
F0.10399028965297918
s(dp1824
g3
F4.075886048403769
sg4
F1.6506653605302073
s(dp1825
g3
F0.18521351876336523
sg4
F0.12608512329196575
stp1826
s(I6
I5
tp1827
((dp1828
g3
F-0.016319898801190225
sg4
F1.2303234389436932
s(dp1829
g3
F0.13713498167888138
sg4
F0.1015686751635475
s(dp1830
g3
F0.2816858134531417
sg4
F1.2434765311393154
s(dp1831
g3
F0.13783477906745056
sg4
F0.10016355569275481
stp1832
s(I7
I0
tp1833
((dp1834
g3
F0.016797392778957754
sg4
F1.2580366488317127
s(dp1835
g3
F0.14009333183790307
sg4
F0.10015667257922212
s(dp1836
g3
F0.01593578253380601
sg4
F1.2530073853536345
s(dp1837
g3
F0.13790247440372472
sg4
F0.09389647913285404
stp1838
s(I11
I69
tp1839
((dp1840
g3
F0.004035935985613248
sg4
F1.3020623856067366
s(dp1841
g3
F0.14296188310367447
sg4
F0.10246376921399025
s(dp1842
g3
F4.123140225322075
sg4
F1.713020489207347
s(dp1843
g3
F0.18847141860981464
sg4
F0.13392894493592944
stp1844
s(I12
I77
tp1845
((dp1846
g3
F-0.005457003991294895
sg4
F1.2552259523701597
s(dp1847
g3
F0.13795943953304368
sg4
F0.09883901776040116
s(dp1848
g3
F4.112305807593273
sg4
F1.8004317187141055
s(dp1849
g3
F0.20041364488504154
sg4
F0.14622913097947543
stp1850
s(I9
I85
tp1851
((dp1852
g3
F-0.022109088657255582
sg4
F1.2057152628665666
s(dp1853
g3
F0.13284691394705317
sg4
F0.09692346851413836
s(dp1854
g3
F3.7234281035589047
sg4
F2.0146776245237725
s(dp1855
g3
F0.22074972003419457
sg4
F0.15329696581438368
stp1856
s(I6
I31
tp1857
((dp1858
g3
F-0.013338910490945377
sg4
F1.2139788978042423
s(dp1859
g3
F0.1334015296999831
sg4
F0.0947647268670011
s(dp1860
g3
F1.7037081866664723
sg4
F1.3162782437693539
s(dp1861
g3
F0.14744857774206954
sg4
F0.10017752447134054
stp1862
s(I8
I62
tp1863
((dp1864
g3
F0.043681367673658045
sg4
F1.2699011122175223
s(dp1865
g3
F0.1404127683306683
sg4
F0.10053873521331325
s(dp1866
g3
F3.858422402227598
sg4
F1.7158211089988173
s(dp1867
g3
F0.19030453270420766
sg4
F0.13846099843112092
stp1868
s(I7
I30
tp1869
((dp1870
g3
F0.009835676219750233
sg4
F1.2462080310424577
s(dp1871
g3
F0.1366054446561769
sg4
F0.09321520385434146
s(dp1872
g3
F1.8083708277231971
sg4
F1.3590839601990934
s(dp1873
g3
F0.15082350770926367
sg4
F0.10379636324982155
stp1874
s(I13
I71
tp1875
((dp1876
g3
F0.01150919888764168
sg4
F1.2697057782169363
s(dp1877
g3
F0.13986201798748676
sg4
F0.10097347121624534
s(dp1878
g3
F4.145674727312638
sg4
F1.7141755134387346
s(dp1879
g3
F0.1901395761394591
sg4
F0.1355502077299987
stp1880
s(I9
I63
tp1881
((dp1882
g3
F0.014638151193154592
sg4
F1.2835645337994368
s(dp1883
g3
F0.1413075216187326
sg4
F0.1014904800210108
s(dp1884
g3
F3.962707166515341
sg4
F1.6850384846680626
s(dp1885
g3
F0.18787816970087023
sg4
F0.13009062548045813
stp1886
s(I6
I49
tp1887
((dp1888
g3
F0.01028098384922771
sg4
F1.2355100075672993
s(dp1889
g3
F0.1365516681410377
sg4
F0.10023520376095263
s(dp1890
g3
F2.8458419423228976
sg4
F1.4329222514283682
s(dp1891
g3
F0.15931808395936642
sg4
F0.11137046044791332
stp1892
s(I10
I60
tp1893
((dp1894
g3
F0.0020071684616225216
sg4
F1.303084093866985
s(dp1895
g3
F0.1446109685647018
sg4
F0.10532941684493402
s(dp1896
g3
F3.8727128355709635
sg4
F1.6407989239678535
s(dp1897
g3
F0.18542243212292941
sg4
F0.12458210952908966
stp1898
s(I8
I4
tp1899
((dp1900
g3
F0.0013378008375943828
sg4
F1.2729145882260773
s(dp1901
g3
F0.14089281904260298
sg4
F0.10114570751670637
s(dp1902
g3
F0.2421953201598721
sg4
F1.242812525633917
s(dp1903
g3
F0.13689089292253298
sg4
F0.09472035443913585
stp1904
s(I7
I52
tp1905
((dp1906
g3
F0.00014687651824951686
sg4
F1.2624334556563566
s(dp1907
g3
F0.14023691791185577
sg4
F0.10208171147681444
s(dp1908
g3
F3.206268275457619
sg4
F1.5151726009814555
s(dp1909
g3
F0.17122935234960357
sg4
F0.11752335587653862
stp1910
s(I13
I33
tp1911
((dp1912
g3
F0.008513599339101008
sg4
F1.3301867261545173
s(dp1913
g3
F0.1475502093539547
sg4
F0.10401010459338544
s(dp1914
g3
F2.5098640936312187
sg4
F1.5022280083035504
s(dp1915
g3
F0.1686537153241514
sg4
F0.12675367073984656
stp1916
s(I11
I49
tp1917
((dp1918
g3
F0.009017974324522005
sg4
F1.32193979673908
s(dp1919
g3
F0.1452223566923414
sg4
F0.10669886722851629
s(dp1920
g3
F3.4428723504467875
sg4
F1.616935126176944
s(dp1921
g3
F0.17919469100277352
sg4
F0.12709584990349532
stp1922
s(I9
I1
tp1923
((dp1924
g3
F0.006870915281132373
sg4
F1.3128473731709167
s(dp1925
g3
F0.145224828260979
sg4
F0.10041683923479183
s(dp1926
g3
F0.10352863829485193
sg4
F1.3304037700707168
s(dp1927
g3
F0.1481181585006623
sg4
F0.10476481628061451
stp1928
s(I6
I75
tp1929
((dp1930
g3
F-0.02139330915018034
sg4
F1.2791154792854424
s(dp1931
g3
F0.14078772732482725
sg4
F0.09953429145214632
s(dp1932
g3
F4.068607792123604
sg4
F1.7590403181040204
s(dp1933
g3
F0.1965853019337498
sg4
F0.1393535176795263
stp1934
s(I12
I58
tp1935
((dp1936
g3
F0.014152982965467187
sg4
F1.3337515713995924
s(dp1937
g3
F0.14667495677575149
sg4
F0.11048859035486269
s(dp1938
g3
F3.8643855570566963
sg4
F1.6681746307853733
s(dp1939
g3
F0.18585496118935918
sg4
F0.13847921695536425
stp1940
s(I10
I6
tp1941
((dp1942
g3
F-0.002349336009525693
sg4
F1.312896585461416
s(dp1943
g3
F0.14403739632283907
sg4
F0.0956983722868725
s(dp1944
g3
F0.42498679961903796
sg4
F1.306723243533545
s(dp1945
g3
F0.14428441054039787
sg4
F0.1001330905932254
stp1946
s(I13
I59
tp1947
((dp1948
g3
F-0.017913022045779603
sg4
F1.2869517870925478
s(dp1949
g3
F0.1414965697564632
sg4
F0.10414810278822739
s(dp1950
g3
F3.8921978695681885
sg4
F1.660094722657923
s(dp1951
g3
F0.1851725018032666
sg4
F0.131116433640607
stp1952
s(I11
I23
tp1953
((dp1954
g3
F0.006503663732916776
sg4
F1.3260940673900847
s(dp1955
g3
F0.14602620764736518
sg4
F0.10630634071277756
s(dp1956
g3
F1.7155551835614604
sg4
F1.386135556650253
s(dp1957
g3
F0.15453254143061668
sg4
F0.10225595299581336
stp1958
s(I7
I69
tp1959
((dp1960
g3
F-0.021215884504460658
sg4
F1.2581295667849877
s(dp1961
g3
F0.1382533277286343
sg4
F0.10188403207768748
s(dp1962
g3
F4.022589610208822
sg4
F1.6415702021819771
s(dp1963
g3
F0.18403480177800446
sg4
F0.1298617007661107
stp1964
s(I12
I16
tp1965
((dp1966
g3
F-0.006699900285844551
sg4
F1.3036569601692336
s(dp1967
g3
F0.14378514255485042
sg4
F0.09962436445323575
s(dp1968
g3
F1.2483879195498542
sg4
F1.4228775167417695
s(dp1969
g3
F0.15949085179495714
sg4
F0.11595250285212322
stp1970
s(I13
I21
tp1971
((dp1972
g3
F-0.007516825264137328
sg4
F1.341479898781141
s(dp1973
g3
F0.1477901837830331
sg4
F0.10560242439822809
s(dp1974
g3
F1.6764598270954294
sg4
F1.4167814183073641
s(dp1975
g3
F0.15745051558768264
sg4
F0.10687359643438199
stp1976
s(I10
I74
tp1977
((dp1978
g3
F0.007359012925574948
sg4
F1.2466752796242875
s(dp1979
g3
F0.13795789666467473
sg4
F0.09926075931964273
s(dp1980
g3
F4.166819047573785
sg4
F1.7467244309744874
s(dp1981
g3
F0.19371843506970254
sg4
F0.1334544980300677
stp1982
s(I8
I86
tp1983
((dp1984
g3
F-0.01036805053300005
sg4
F1.1819069430042726
s(dp1985
g3
F0.1294994995673771
sg4
F0.0968579476094168
s(dp1986
g3
F3.5719865604969945
sg4
F2.0463223945922726
s(dp1987
g3
F0.2270696212179013
sg4
F0.16136810834879678
stp1988
s(I12
I68
tp1989
((dp1990
g3
F-0.0007494056333712251
sg4
F1.2798383597133687
s(dp1991
g3
F0.14201034754736963
sg4
F0.1061312984642433
s(dp1992
g3
F4.152732612388114
sg4
F1.7067921854521728
s(dp1993
g3
F0.19252766683513878
sg4
F0.13033194735939635
stp1994
s(I10
I84
tp1995
((dp1996
g3
F-0.01747108602646219
sg4
F1.1996922578507832
s(dp1997
g3
F0.13105696075216788
sg4
F0.09224070462072509
s(dp1998
g3
F3.8050886709565166
sg4
F2.0218764730248484
s(dp1999
g3
F0.22286164407041253
sg4
F0.16952124873849816
stp2000
s(I6
I22
tp2001
((dp2002
g3
F-0.017293839214705398
sg4
F1.2313453426042693
s(dp2003
g3
F0.1364012812365335
sg4
F0.09450959069747689
s(dp2004
g3
F1.2258964504236398
sg4
F1.3282340537892827
s(dp2005
g3
F0.15040968601404958
sg4
F0.09987711217497985
stp2006
s(I8
I37
tp2007
((dp2008
g3
F-0.01576917769883379
sg4
F1.299406207617778
s(dp2009
g3
F0.14246397438541647
sg4
F0.10227831345718108
s(dp2010
g3
F2.373016432488598
sg4
F1.4372217702619208
s(dp2011
g3
F0.15920765066438913
sg4
F0.11219626220606405
stp2012
s(I7
I23
tp2013
((dp2014
g3
F0.004374688435418772
sg4
F1.2414624034152193
s(dp2015
g3
F0.13763507029620448
sg4
F0.10290498828163974
s(dp2016
g3
F1.3618082284705562
sg4
F1.3613586658688004
s(dp2017
g3
F0.15309421376217736
sg4
F0.11315683960111889
stp2018
s(I13
I64
tp2019
((dp2020
g3
F0.020773535805810095
sg4
F1.3237612995568346
s(dp2021
g3
F0.14573576910204533
sg4
F0.10999000012105975
s(dp2022
g3
F4.052687024977472
sg4
F1.6822188621100909
s(dp2023
g3
F0.1886380269422534
sg4
F0.1283697219337222
stp2024
s(I11
I80
tp2025
((dp2026
g3
F-0.00881424582879553
sg4
F1.2431639888935875
s(dp2027
g3
F0.13666531651033859
sg4
F0.09820109333811111
s(dp2028
g3
F4.052127071512945
sg4
F1.876574498505733
s(dp2029
g3
F0.20797127924199899
sg4
F0.15369322458411894
stp2030
s(I9
I32
tp2031
((dp2032
g3
F0.014268772430925392
sg4
F1.2810679768066877
s(dp2033
g3
F0.14085258770623899
sg4
F0.10140515548685758
s(dp2034
g3
F2.160879101032796
sg4
F1.4102944460466733
s(dp2035
g3
F0.1558808601300976
sg4
F0.10610624885623932
stp2036
s(I6
I40
tp2037
((dp2038
g3
F-0.0005033668184881712
sg4
F1.2065541389282028
s(dp2039
g3
F0.13244957098611487
sg4
F0.09115440871187608
s(dp2040
g3
F2.253176360446437
sg4
F1.396290708288203
s(dp2041
g3
F0.15444839915132702
sg4
F0.10395999149534829
stp2042
s(I10
I39
tp2043
((dp2044
g3
F0.007308937677612315
sg4
F1.3009994115765982
s(dp2045
g3
F0.14325862686297675
sg4
F0.10417507377147195
s(dp2046
g3
F2.761028938837045
sg4
F1.5124869045909715
s(dp2047
g3
F0.16970352905124364
sg4
F0.12215455320432633
stp2048
s(I8
I11
tp2049
((dp2050
g3
F-0.0029810255790634343
sg4
F1.2802048516788531
s(dp2051
g3
F0.14133386885529242
sg4
F0.10019541393869913
s(dp2052
g3
F0.7153174594034635
sg4
F1.3296216353599999
s(dp2053
g3
F0.1481757249712814
sg4
F0.10299866110931688
stp2054
s(I7
I45
tp2055
((dp2056
g3
F0.003238822516504314
sg4
F1.2502533797466195
s(dp2057
g3
F0.13815462636694048
sg4
F0.09888960045689177
s(dp2058
g3
F2.750661701734355
sg4
F1.454566565931506
s(dp2059
g3
F0.16354503710331292
sg4
F0.11748635629385218
stp2060
s(I11
I54
tp2061
((dp2062
g3
F-0.004749023869356717
sg4
F1.3075058433681759
s(dp2063
g3
F0.14392460355338782
sg4
F0.10265487044971278
s(dp2064
g3
F3.640798459336156
sg4
F1.6258448120420468
s(dp2065
g3
F0.17931998752752998
sg4
F0.1303342734215236
stp2066
s(I9
I10
tp2067
((dp2068
g3
F-0.0007849470678507053
sg4
F1.306238196392718
s(dp2069
g3
F0.14407462757965916
sg4
F0.10256184534015023
s(dp2070
g3
F0.6963030017882934
sg4
F1.3551346722311428
s(dp2071
g3
F0.151550363143776
sg4
F0.10642599880990578
stp2072
s(I6
I66
tp2073
((dp2074
g3
F-0.035370416787572245
sg4
F1.221342761568824
s(dp2075
g3
F0.13530890745945362
sg4
F0.0974863311120554
s(dp2076
g3
F3.807341060396351
sg4
F1.6171147757161775
s(dp2077
g3
F0.17850388080009694
sg4
F0.13201893549840782
stp2078
s(I12
I49
tp2079
((dp2080
g3
F-0.026833676672276763
sg4
F1.3360652775863164
s(dp2081
g3
F0.14819209431705488
sg4
F0.11190606037034267
s(dp2082
g3
F3.4621895033487116
sg4
F1.6013701554172868
s(dp2083
g3
F0.18077120329733765
sg4
F0.1270320699971652
stp2084
s(I10
I1
tp2085
((dp2086
g3
F-0.00983877640825681
sg4
F1.3323561818967247
s(dp2087
g3
F0.14698482810704833
sg4
F0.10459736858742086
s(dp2088
g3
F0.07337999311969656
sg4
F1.2967692727663702
s(dp2089
g3
F0.14340864410942095
sg4
F0.09854236524099191
stp2090
s(I8
I17
tp2091
((dp2092
g3
F0.015910749487649367
sg4
F1.2598427652001076
s(dp2093
g3
F0.13882382373271923
sg4
F0.09771566493989581
s(dp2094
g3
F1.0808287910948535
sg4
F1.345415271104661
s(dp2095
g3
F0.14950114200134113
sg4
F0.10545287724055985
stp2096
s(I13
I52
tp2097
((dp2098
g3
F0.009246796546370284
sg4
F1.3324955404720658
s(dp2099
g3
F0.14749138677527163
sg4
F0.10789363236946081
s(dp2100
g3
F3.630209390017379
sg4
F1.6390931849289476
s(dp2101
g3
F0.18172736971126735
sg4
F0.12975961390073032
stp2102
s(I11
I12
tp2103
((dp2104
g3
F-0.007131556292445551
sg4
F1.3281333160483717
s(dp2105
g3
F0.14846472757232632
sg4
F0.11069623794641281
s(dp2106
g3
F0.8798988455672148
sg4
F1.4132467270928333
s(dp2107
g3
F0.1577888100159166
sg4
F0.11559036197993455
stp2108
s(I7
I66
tp2109
((dp2110
g3
F-0.00822010521981964
sg4
F1.2405824704462183
s(dp2111
g3
F0.13728054587359262
sg4
F0.1010618504986871
s(dp2112
g3
F3.9015421550902234
sg4
F1.6819968392622855
s(dp2113
g3
F0.18779866265598555
sg4
F0.1335282404887127
stp2114
s(I12
I15
tp2115
((dp2116
g3
F-0.003714732795410791
sg4
F1.3361581393463746
s(dp2117
g3
F0.14677326695010084
sg4
F0.10419209268438334
s(dp2118
g3
F1.1680185923436932
sg4
F1.390719663293943
s(dp2119
g3
F0.15382912928085268
sg4
F0.10737615415098911
stp2120
s(I13
I14
tp2121
((dp2122
g3
F-0.015485343964070974
sg4
F1.3524390759269858
s(dp2123
g3
F0.14978636891958974
sg4
F0.11041904404286595
s(dp2124
g3
F1.1161672444104158
sg4
F1.4020765331504284
s(dp2125
g3
F0.15800620854627523
sg4
F0.116253534713878
stp2126
s(I7
I88
tp2127
((dp2128
g3
F0.006040946769805267
sg4
F1.1358787300798185
s(dp2129
g3
F0.12262454736413386
sg4
F0.08613641203375277
s(dp2130
g3
F2.777485960319846
sg4
F2.446991932900562
s(dp2131
g3
F0.3105467545985019
sg4
F0.24678115608114481
stp2132
s(I12
I67
tp2133
((dp2134
g3
F0.006589138681787565
sg4
F1.2974916236531255
s(dp2135
g3
F0.1429470718336674
sg4
F0.10379288511790696
s(dp2136
g3
F4.105565309367175
sg4
F1.7134406588739586
s(dp2137
g3
F0.1925162124387758
sg4
F0.13520054981326168
stp2138
s(I9
I71
tp2139
((dp2140
g3
F0.007534413947190899
sg4
F1.2970924568259443
s(dp2141
g3
F0.1426097311983433
sg4
F0.1099626871850512
s(dp2142
g3
F4.131717486918095
sg4
F1.734445391429721
s(dp2143
g3
F0.1959712177136459
sg4
F0.14135132118165594
stp2144
s(I6
I9
tp2145
((dp2146
g3
F-0.021741484217314477
sg4
F1.1935274518384538
s(dp2147
g3
F0.13184407246024904
sg4
F0.09657473763838387
s(dp2148
g3
F0.4949296979340434
sg4
F1.2634686312420875
s(dp2149
g3
F0.14112909316155342
sg4
F0.1002365020729511
stp2150
s(I8
I44
tp2151
((dp2152
g3
F-0.01358490187181971
sg4
F1.2926517444953776
s(dp2153
g3
F0.14257572303995697
sg4
F0.10451247684453224
s(dp2154
g3
F2.9143477856043454
sg4
F1.4822994133229705
s(dp2155
g3
F0.16392995269196042
sg4
F0.11891691922624403
stp2156
s(I7
I12
tp2157
((dp2158
g3
F0.0015655388462483266
sg4
F1.238814930282785
s(dp2159
g3
F0.13727515463292284
sg4
F0.10042776465571923
s(dp2160
g3
F0.7084221621338418
sg4
F1.3156992003396117
s(dp2161
g3
F0.14481746542291551
sg4
F0.0961153047946417
stp2162
s(I11
I73
tp2163
((dp2164
g3
F-0.024378330652739644
sg4
F1.2922648194036461
s(dp2165
g3
F0.1421412729994057
sg4
F0.10236063536698259
s(dp2166
g3
F4.11038164959823
sg4
F1.7448371086238785
s(dp2167
g3
F0.19139550968022512
sg4
F0.12678389872862506
stp2168
s(I12
I89
tp2169
((dp2170
g3
F0.03686186856584195
sg4
F1.0758416651473888
s(dp2171
g3
F0.11568084156564296
sg4
F0.08485668528007678
s(dp2172
g3
F2.3560785763112895
sg4
F2.7134324261985667
s(dp2173
g3
F0.3548001354050725
sg4
F0.2786956590805807
stp2174
s(I9
I41
tp2175
((dp2176
g3
F0.03133603372448057
sg4
F1.2809204765227449
s(dp2177
g3
F0.14219800210181993
sg4
F0.10151798640579268
s(dp2178
g3
F2.7730470773559732
sg4
F1.539824231351587
s(dp2179
g3
F0.17202268269745913
sg4
F0.12633093226790615
stp2180
s(I6
I35
tp2181
((dp2182
g3
F0.004761402253904201
sg4
F1.2267535421030915
s(dp2183
g3
F0.13456559935640683
sg4
F0.09446837981057943
s(dp2184
g3
F1.9371621693571264
sg4
F1.3613871350959632
s(dp2185
g3
F0.15074406911872318
sg4
F0.10696467148306188
stp2186
s(I10
I46
tp2187
((dp2188
g3
F-0.009120202861718107
sg4
F1.3059902112568151
s(dp2189
g3
F0.14371946431600868
sg4
F0.09838617674685135
s(dp2190
g3
F3.2064631597866047
sg4
F1.5896002262629594
s(dp2191
g3
F0.17796655540744322
sg4
F0.12871259790395972
stp2192
s(I8
I50
tp2193
((dp2194
g3
F-0.008760160963991792
sg4
F1.2828985108406963
s(dp2195
g3
F0.14198277685714955
sg4
F0.099788239437399
s(dp2196
g3
F3.242384688439741
sg4
F1.5244279804995662
s(dp2197
g3
F0.16871232746433407
sg4
F0.12014524065437548
stp2198
s(I7
I42
tp2199
((dp2200
g3
F0.02390575771457204
sg4
F1.2693967219029076
s(dp2201
g3
F0.14119315180195335
sg4
F0.10266020787529984
s(dp2202
g3
F2.579961759926878
sg4
F1.4082428349601241
s(dp2203
g3
F0.15711411921680485
sg4
F0.10781424634142389
stp2204
s(I13
I83
tp2205
((dp2206
g3
F-0.00399442927363991
sg4
F1.235112070297127
s(dp2207
g3
F0.13550884701236515
sg4
F0.0950381008072938
s(dp2208
g3
F3.915999543940665
sg4
F1.9595174418935508
s(dp2209
g3
F0.215760503450241
sg4
F0.16945711482870407
stp2210
s(I11
I47
tp2211
((dp2212
g3
F-0.0017933125502673786
sg4
F1.3409159956066783
s(dp2213
g3
F0.1475709751981764
sg4
F0.10920816244661846
s(dp2214
g3
F3.3356662743295145
sg4
F1.6165912117507277
s(dp2215
g3
F0.1814394856538213
sg4
F0.1372652030030238
stp2216
s(I9
I51
tp2217
((dp2218
g3
F-0.023170302551236532
sg4
F1.2882466800646664
s(dp2219
g3
F0.14270656606434512
sg4
F0.10361539632618222
s(dp2220
g3
F3.395079210577486
sg4
F1.5693700104899384
s(dp2221
g3
F0.17391622411630792
sg4
F0.1223748996303321
stp2222
s(I6
I69
tp2223
((dp2224
g3
F-0.02650697695550963
sg4
F1.2494145219320885
s(dp2225
g3
F0.13757155155140677
sg4
F0.10001731508880252
s(dp2226
g3
F3.9524301402165127
sg4
F1.6336875876827925
s(dp2227
g3
F0.18378883475656282
sg4
F0.12206695133721823
stp2228
s(I12
I40
tp2229
((dp2230
g3
F0.01719918380776808
sg4
F1.3198252618305901
s(dp2231
g3
F0.14565822439655107
sg4
F0.10684130805243752
s(dp2232
g3
F2.939954190602302
sg4
F1.5335145840909363
s(dp2233
g3
F0.1721016335182295
sg4
F0.11950003051504277
stp2234
s(I10
I8
tp2235
((dp2236
g3
F-0.010904566189015918
sg4
F1.3091628814559644
s(dp2237
g3
F0.14416621496372706
sg4
F0.10126178795394492
s(dp2238
g3
F0.5967790545930065
sg4
F1.3518149330323115
s(dp2239
g3
F0.15022812090652216
sg4
F0.10911491644624116
stp2240
s(I8
I24
tp2241
((dp2242
g3
F-0.004685231320363137
sg4
F1.2922996673236566
s(dp2243
g3
F0.14251348722845503
sg4
F0.10108284892395003
s(dp2244
g3
F1.5385853981830904
sg4
F1.3573489050327296
s(dp2245
g3
F0.15115447264409632
sg4
F0.10571412969451655
stp2246
s(I13
I45
tp2247
((dp2248
g3
F-0.00039308641103086295
sg4
F1.3305110030721976
s(dp2249
g3
F0.14612606980727866
sg4
F0.10797435343100714
s(dp2250
g3
F3.2823958813651366
sg4
F1.584869645059783
s(dp2251
g3
F0.176812255811424
sg4
F0.13505961709026837
stp2252
s(I11
I5
tp2253
((dp2254
g3
F-0.002728526830363842
sg4
F1.3246094970760725
s(dp2255
g3
F0.14606234744707847
sg4
F0.1090325821899103
s(dp2256
g3
F0.40284262870675835
sg4
F1.3676157016347013
s(dp2257
g3
F0.15132979721668272
sg4
F0.10594679484647684
stp2258
s(I9
I21
tp2259
((dp2260
g3
F0.012858606059640287
sg4
F1.3031903073963154
s(dp2261
g3
F0.1437744787092503
sg4
F0.10138099736535544
s(dp2262
g3
F1.44236382067659
sg4
F1.3802629269673548
s(dp2263
g3
F0.15324138119018405
sg4
F0.10579893868698997
stp2264
s(I12
I6
tp2265
((dp2266
g3
F0.013947792732756259
sg4
F1.3580580931544937
s(dp2267
g3
F0.15026404499652724
sg4
F0.1093485026936265
s(dp2268
g3
F0.46495949915908064
sg4
F1.358895695517234
s(dp2269
g3
F0.14956605107122778
sg4
F0.10335497750241007
stp2270
s(I10
I18
tp2271
((dp2272
g3
F-0.015588861295824818
sg4
F1.3070488077535773
s(dp2273
g3
F0.14554241999910633
sg4
F0.10460097593317652
s(dp2274
g3
F1.3040692781033236
sg4
F1.3555942487624673
s(dp2275
g3
F0.15094394102837705
sg4
F0.10271258556381413
stp2276
s(I13
I7
tp2277
((dp2278
g3
F0.030038009067123506
sg4
F1.3621399750117298
s(dp2279
g3
F0.14997971449130765
sg4
F0.10835029802263918
s(dp2280
g3
F0.5690154904890421
sg4
F1.3885889541554746
s(dp2281
g3
F0.15432802139570445
sg4
F0.10944532630591364
stp2282
s(I11
I27
tp2283
((dp2284
g3
F0.019551836788754162
sg4
F1.3105700993619365
s(dp2285
g3
F0.14431397184887823
sg4
F0.10309958858498391
s(dp2286
g3
F2.0024289663084436
sg4
F1.4398930760143516
s(dp2287
g3
F0.16059374321116726
sg4
F0.11622340747855175
stp2288
s(I7
I81
tp2289
((dp2290
g3
F-0.014654712393004421
sg4
F1.1968870470436745
s(dp2291
g3
F0.13096944588345238
sg4
F0.09039446449583555
s(dp2292
g3
F3.9704752775173073
sg4
F1.8660410654633688
s(dp2293
g3
F0.2063511927102475
sg4
F0.15532260809173082
stp2294
s(I12
I28
tp2295
((dp2296
g3
F-0.007841258129132833
sg4
F1.316599481709799
s(dp2297
g3
F0.14533209902870137
sg4
F0.10126920991711374
s(dp2298
g3
F2.1190673810362544
sg4
F1.4705503904296013
s(dp2299
g3
F0.16323518282281468
sg4
F0.11641627366609564
stp2300
s(I8
I68
tp2301
((dp2302
g3
F-0.021211125677627063
sg4
F1.2559335930813642
s(dp2303
g3
F0.13856496188023115
sg4
F0.10120182192753024
s(dp2304
g3
F4.071026131359249
sg4
F1.6812542354208806
s(dp2305
g3
F0.18647615549027385
sg4
F0.1319066455186536
stp2306
s(I9
I72
tp2307
((dp2308
g3
F-0.028285226457434476
sg4
F1.2855395867105912
s(dp2309
g3
F0.14141924900502767
sg4
F0.09999875462542063
s(dp2310
g3
F4.157301170582725
sg4
F1.7123855359520417
s(dp2311
g3
F0.1886631043006317
sg4
F0.1366667083541031
stp2312
s(I10
I70
tp2313
((dp2314
g3
F0.0053118643337044524
sg4
F1.2762021227267526
s(dp2315
g3
F0.14042998535149787
sg4
F0.09766390160054894
s(dp2316
g3
F4.117485573638455
sg4
F1.7415706904176154
s(dp2317
g3
F0.19563740271529095
sg4
F0.1386762366811516
stp2318
s(I6
I0
tp2319
((dp2320
g3
F-0.00855834006175682
sg4
F1.210174000702516
s(dp2321
g3
F0.13404929517571196
sg4
F0.09741252983521054
s(dp2322
g3
F0.019834924350310423
sg4
F1.2224092457876226
s(dp2323
g3
F0.1338310163882992
sg4
F0.08974003363588379
stp2324
s(I7
I5
tp2325
((dp2326
g3
F-0.022598548498725224
sg4
F1.2422606246752501
s(dp2327
g3
F0.13630556880786848
sg4
F0.09233710543752549
s(dp2328
g3
F0.2839344808488786
sg4
F1.2767093189821987
s(dp2329
g3
F0.14171881832212974
sg4
F0.10031755564616485
stp2330
s(I11
I78
tp2331
((dp2332
g3
F-0.005389384105080497
sg4
F1.2748567631112722
s(dp2333
g3
F0.1396513765422932
sg4
F0.10487150527270517
s(dp2334
g3
F4.2056759097975736
sg4
F1.8110901052088146
s(dp2335
g3
F0.19981910246975865
sg4
F0.14302295960582723
stp2336
s(I12
I80
tp2337
((dp2338
g3
F-0.0011481112106022096
sg4
F1.2324941570273995
s(dp2339
g3
F0.1350435159690888
sg4
F0.09955424907922372
s(dp2340
g3
F4.007647086415934
sg4
F1.795757129387629
s(dp2341
g3
F0.19716395884552096
sg4
F0.14074924774800746
stp2342
s(I9
I82
tp2343
((dp2344
g3
F0.0038759128051890634
sg4
F1.2289607815041221
s(dp2345
g3
F0.13527154879918324
sg4
F0.09481855078476453
s(dp2346
g3
F3.9741560904842332
sg4
F1.8763620400644112
s(dp2347
g3
F0.20718648479031865
sg4
F0.15466296792673406
stp2348
s(I6
I26
tp2349
((dp2350
g3
F-0.005139418592699618
sg4
F1.2103767464544557
s(dp2351
g3
F0.13306292557594168
sg4
F0.09262585938261148
s(dp2352
g3
F1.4507914222399108
sg4
F1.341745286126362
s(dp2353
g3
F0.15100417436238134
sg4
F0.10667394716477507
stp2354
s(I10
I41
tp2355
((dp2356
g3
F-0.008972757068805626
sg4
F1.298044458022269
s(dp2357
g3
F0.1440367157406538
sg4
F0.10168453112210696
s(dp2358
g3
F2.8978353576941336
sg4
F1.576439866939839
s(dp2359
g3
F0.17630258609327343
sg4
F0.12563657213040125
stp2360
s(I8
I57
tp2361
((dp2362
g3
F-0.02461873300659212
sg4
F1.2931050119370782
s(dp2363
g3
F0.1432945321726874
sg4
F0.1033454368097636
s(dp2364
g3
F3.6541556144983254
sg4
F1.577879800312979
s(dp2365
g3
F0.1756862926954037
sg4
F0.12784337131274293
stp2366
s(I7
I35
tp2367
((dp2368
g3
F-0.005539045217224703
sg4
F1.254738136704898
s(dp2369
g3
F0.13875896851062586
sg4
F0.09941924222834098
s(dp2370
g3
F2.112188024723575
sg4
F1.3918829013077303
s(dp2371
g3
F0.1534545776021463
sg4
F0.10620286776538201
stp2372
s(I13
I76
tp2373
((dp2374
g3
F-0.003274450879270141
sg4
F1.2581398548705711
s(dp2375
g3
F0.13933200880660346
sg4
F0.09419525833314268
s(dp2376
g3
F4.123322645700579
sg4
F1.7554397068463456
s(dp2377
g3
F0.19310210915461612
sg4
F0.14091926511591912
stp2378
s(I11
I36
tp2379
((dp2380
g3
F0.03713499450304081
sg4
F1.321235831000703
s(dp2381
g3
F0.14662781542766118
sg4
F0.10028243015157712
s(dp2382
g3
F2.643615862483156
sg4
F1.5102274554590391
s(dp2383
g3
F0.16838768881300847
sg4
F0.11548125726371306
stp2384
s(I9
I52
tp2385
((dp2386
g3
F-0.00834531851387188
sg4
F1.304278464162113
s(dp2387
g3
F0.14388091184355245
sg4
F0.10142462059386315
s(dp2388
g3
F3.43828760337621
sg4
F1.6066921476241065
s(dp2389
g3
F0.18305593941659337
sg4
F0.13139862247996648
stp2390
s(I6
I60
tp2391
((dp2392
g3
F0.0011591559655825812
sg4
F1.2810522948267749
s(dp2393
g3
F0.14109405888795445
sg4
F0.10357666995221959
s(dp2394
g3
F3.4832777539447743
sg4
F1.5776887016150942
s(dp2395
g3
F0.17626243412638454
sg4
F0.13450270002329334
stp2396
s(I12
I39
tp2397
((dp2398
g3
F0.005800127902882757
sg4
F1.3699655758355955
s(dp2399
g3
F0.15170816304400103
sg4
F0.11036117211078411
s(dp2400
g3
F2.8823859024015883
sg4
F1.5351294016546757
s(dp2401
g3
F0.1711186400789697
sg4
F0.11964844079818615
stp2402
s(I10
I51
tp2403
((dp2404
g3
F-0.002608604277312576
sg4
F1.2993051126660216
s(dp2405
g3
F0.14298368704349035
sg4
F0.10249513726566228
s(dp2406
g3
F3.461674946972236
sg4
F1.6069269866568519
s(dp2407
g3
F0.17839961766015744
sg4
F0.12705925926730088
stp2408
s(I8
I31
tp2409
((dp2410
g3
F-0.007203101611661267
sg4
F1.2553372898510657
s(dp2411
g3
F0.13840069364198493
sg4
F0.09636150526439091
s(dp2412
g3
F2.0118457062302286
sg4
F1.3948395381626535
s(dp2413
g3
F0.1563178664129583
sg4
F0.10932683818252742
stp2414
s(I7
I57
tp2415
((dp2416
g3
F-0.001588112621209059
sg4
F1.287645217782499
s(dp2417
g3
F0.14220654790268838
sg4
F0.1033109074057299
s(dp2418
g3
F3.511767175585006
sg4
F1.5509680073656202
s(dp2419
g3
F0.17106988020114589
sg4
F0.12947354345321183
stp2420
s(I13
I38
tp2421
((dp2422
g3
F-0.002216270440047907
sg4
F1.3172499891719343
s(dp2423
g3
F0.1456483623941256
sg4
F0.1077494036873683
s(dp2424
g3
F2.8729580788380567
sg4
F1.5400428976710079
s(dp2425
g3
F0.1725142113285052
sg4
F0.12563570086538345
stp2426
s(I11
I58
tp2427
((dp2428
g3
F-0.009427339482186659
sg4
F1.331893341285959
s(dp2429
g3
F0.1465529537310436
sg4
F0.1093911064014077
s(dp2430
g3
F3.842699174816609
sg4
F1.649056590349428
s(dp2431
g3
F0.1831402390193917
sg4
F0.13282324575167048
stp2432
s(I9
I30
tp2433
((dp2434
g3
F-0.018328960613169465
sg4
F1.306435190879223
s(dp2435
g3
F0.14405647149224204
sg4
F0.10594702368876874
s(dp2436
g3
F2.036108497453921
sg4
F1.4430290615071488
s(dp2437
g3
F0.16044753654509747
sg4
F0.11518820870804136
stp2438
s(I6
I86
tp2439
((dp2440
g3
F-0.025520056930846913
sg4
F1.1683543291223017
s(dp2441
g3
F0.1284123309563039
sg4
F0.09043456582226139
s(dp2442
g3
F3.499613454545136
sg4
F2.0785497375075743
s(dp2443
g3
F0.23293370329426244
sg4
F0.1913299347163837
stp2444
s(I12
I61
tp2445
((dp2446
g3
F-0.007894293653240902
sg4
F1.317844977050823
s(dp2447
g3
F0.14568918298488998
sg4
F0.10919860390129965
s(dp2448
g3
F3.919192678891431
sg4
F1.6914462567518425
s(dp2449
g3
F0.18803951392666196
sg4
F0.13476192019471767
stp2450
s(I10
I29
tp2451
((dp2452
g3
F-0.013672736311690081
sg4
F1.3243193735270502
s(dp2453
g3
F0.14593181984331005
sg4
F0.10408911874212412
s(dp2454
g3
F2.0915448813020827
sg4
F1.4453123431993367
s(dp2455
g3
F0.15923440420333246
sg4
F0.10928781187139858
stp2456
s(I13
I0
tp2457
((dp2458
g3
F-0.004711826540607533
sg4
F1.3692827223887991
s(dp2459
g3
F0.15139947424332656
sg4
F0.10894099621859232
s(dp2460
g3
F-0.0061166123208897805
sg4
F1.3787364189375502
s(dp2461
g3
F0.15265908803997075
sg4
F0.11128808417017211
stp2462
s(I11
I16
tp2463
((dp2464
g3
F0.009738889771679027
sg4
F1.3287316156144144
s(dp2465
g3
F0.1470537657213632
sg4
F0.10417686728963615
s(dp2466
g3
F1.200111776390239
sg4
F1.3872902765662922
s(dp2467
g3
F0.15374159105806995
sg4
F0.10920153234677465
stp2468
s(I7
I78
tp2469
((dp2470
g3
F-0.0019110550807585058
sg4
F1.2724778953975948
s(dp2471
g3
F0.14058617842594762
sg4
F0.10505539626194527
s(dp2472
g3
F4.049218732002695
sg4
F1.7659112229507012
s(dp2473
g3
F0.19469930061441554
sg4
F0.13571458229392463
stp2474
s(I12
I27
tp2475
((dp2476
g3
F0.024095151243050505
sg4
F1.3711463537639683
s(dp2477
g3
F0.15149933697601925
sg4
F0.10540483716302806
s(dp2478
g3
F2.057328379046746
sg4
F1.4678808207296346
s(dp2479
g3
F0.16359708077499802
sg4
F0.12008750958337255
stp2480
s(I8
I75
tp2481
((dp2482
g3
F-0.00041847528434657555
sg4
F1.301676410730124
s(dp2483
g3
F0.1437601422923988
sg4
F0.10892657558929608
s(dp2484
g3
F4.129851828531341
sg4
F1.7800279991155137
s(dp2485
g3
F0.19721106119732346
sg4
F0.14317040972703932
stp2486
s(I13
I26
tp2487
((dp2488
g3
F-0.004612350638734775
sg4
F1.33882745678024
s(dp2489
g3
F0.14746119861393153
sg4
F0.10578852018793306
s(dp2490
g3
F2.034829391016418
sg4
F1.4604277591027306
s(dp2491
g3
F0.16282605191790878
sg4
F0.11363499819498768
stp2492
s(I10
I65
tp2493
((dp2494
g3
F-0.0023463836920895043
sg4
F1.3070045883473762
s(dp2495
g3
F0.1452691159082185
sg4
F0.10460316635959677
s(dp2496
g3
F4.026708314592099
sg4
F1.706936033380333
s(dp2497
g3
F0.1902341129868299
sg4
F0.1359181513739487
stp2498
s(I8
I81
tp2499
((dp2500
g3
F0.012330503536345905
sg4
F1.2587437486273125
s(dp2501
g3
F0.13887473513373216
sg4
F0.10169473335773038
s(dp2502
g3
F4.005178499013453
sg4
F1.841937662459535
s(dp2503
g3
F0.20469866215148036
sg4
F0.14584414196813955
stp2504
s(I7
I2
tp2505
((dp2506
g3
F0.0344984900992964
sg4
F1.2601934855855759
s(dp2507
g3
F0.13808801540876353
sg4
F0.09411649265784117
s(dp2508
g3
F0.11373200966111696
sg4
F1.2224219747861496
s(dp2509
g3
F0.13442869509597305
sg4
F0.09917349387465413
stp2510
s(I11
I71
tp2511
((dp2512
g3
F0.0015910777379755103
sg4
F1.2734284550744954
s(dp2513
g3
F0.13934121818622336
sg4
F0.09842512434906836
s(dp2514
g3
F4.137242073559375
sg4
F1.6993295697416109
s(dp2515
g3
F0.18968103988023755
sg4
F0.14193449637194278
stp2516
s(I12
I79
tp2517
((dp2518
g3
F-0.014257996347019186
sg4
F1.2717810777120888
s(dp2519
g3
F0.1395362873376903
sg4
F0.09803212420548679
s(dp2520
g3
F4.105506719720513
sg4
F1.8273183376622415
s(dp2521
g3
F0.20322869744715488
sg4
F0.1447774723183718
stp2522
s(I6
I29
tp2523
((dp2524
g3
F-0.008693384617483813
sg4
F1.2246974926593484
s(dp2525
g3
F0.13554727781973097
sg4
F0.09510641363191774
s(dp2526
g3
F1.5896100013667889
sg4
F1.3325693549342774
s(dp2527
g3
F0.14821548877724777
sg4
F0.10164329753977386
stp2528
s(I8
I32
tp2529
((dp2530
g3
F0.008385084159395095
sg4
F1.2565933791045734
s(dp2531
g3
F0.13792886007360583
sg4
F0.09978918960943739
s(dp2532
g3
F2.0555201275923647
sg4
F1.3889374552497527
s(dp2533
g3
F0.15499022109250982
sg4
F0.10748912849814873
stp2534
s(I7
I24
tp2535
((dp2536
g3
F-0.013721702332849861
sg4
F1.2612911823758384
s(dp2537
g3
F0.13893445957040118
sg4
F0.09980729790749643
s(dp2538
g3
F1.421114669614262
sg4
F1.3480125010186497
s(dp2539
g3
F0.14966336860796625
sg4
F0.10309195985372765
stp2540
s(I13
I69
tp2541
((dp2542
g3
F-0.012756798970851468
sg4
F1.2642821170964893
s(dp2543
g3
F0.13868260019412793
sg4
F0.09790923787231343
s(dp2544
g3
F4.165307238787202
sg4
F1.7021990497581345
s(dp2545
g3
F0.19274314694799433
sg4
F0.1344966315394699
stp2546
s(I9
I61
tp2547
((dp2548
g3
F0.025877911558224387
sg4
F1.2936636948776106
s(dp2549
g3
F0.14134986982762987
sg4
F0.10310089002797629
s(dp2550
g3
F3.886690829060404
sg4
F1.666240835582373
s(dp2551
g3
F0.18640172061402716
sg4
F0.1416670404156839
stp2552
s(I6
I55
tp2553
((dp2554
g3
F-0.0027866338343229824
sg4
F1.2483291664932326
s(dp2555
g3
F0.13744726409173946
sg4
F0.1012226093349704
s(dp2556
g3
F3.2063970829469497
sg4
F1.540263154693648
s(dp2557
g3
F0.1736113492818112
sg4
F0.1316597496678853
stp2558
s(I10
I58
tp2559
((dp2560
g3
F-0.01908921881990877
sg4
F1.3220414680814736
s(dp2561
g3
F0.1451355455346212
sg4
F0.10146767475684604
s(dp2562
g3
F3.774735125177533
sg4
F1.6587129265980753
s(dp2563
g3
F0.1859509824632508
sg4
F0.14045476578873317
stp2564
s(I8
I6
tp2565
((dp2566
g3
F-0.013706299396890831
sg4
F1.2782070359169062
s(dp2567
g3
F0.14127631944057145
sg4
F0.09972404920713696
s(dp2568
g3
F0.38838174279161386
sg4
F1.2746116800127214
s(dp2569
g3
F0.14136354571595378
sg4
F0.09722731263398676
stp2570
s(I7
I54
tp2571
((dp2572
g3
F0.0352923451801872
sg4
F1.2729120966155285
s(dp2573
g3
F0.13977437083002187
sg4
F0.0990039428794739
s(dp2574
g3
F3.3759643937140993
sg4
F1.544014822117989
s(dp2575
g3
F0.17305802979389995
sg4
F0.12138994790131818
stp2576
s(I11
I51
tp2577
((dp2578
g3
F0.0028866987291786828
sg4
F1.3015807267255872
s(dp2579
g3
F0.14250056310859638
sg4
F0.0981280591535294
s(dp2580
g3
F3.513831685536198
sg4
F1.6112643101394115
s(dp2581
g3
F0.18123896561370456
sg4
F0.13005301489170484
stp2582
s(I9
I7
tp2583
((dp2584
g3
F-0.017989980234674796
sg4
F1.3170875057654448
s(dp2585
g3
F0.14561097332832262
sg4
F0.10421475038424133
s(dp2586
g3
F0.48319025567716123
sg4
F1.3214135785582368
s(dp2587
g3
F0.14672923017061357
sg4
F0.10129332785460654
stp2588
s(I6
I73
tp2589
((dp2590
g3
F-0.010555485220694383
sg4
F1.267814137481746
s(dp2591
g3
F0.13949284355775315
sg4
F0.10137352833222857
s(dp2592
g3
F4.024934025186894
sg4
F1.6970075674679028
s(dp2593
g3
F0.1889505668792899
sg4
F0.13427151041578655
stp2594
s(I12
I52
tp2595
((dp2596
g3
F-0.012279718324496147
sg4
F1.3297997883408446
s(dp2597
g3
F0.1480086412952778
sg4
F0.10845703882270863
s(dp2598
g3
F3.619282086394035
sg4
F1.6334000481162794
s(dp2599
g3
F0.1839127644052727
sg4
F0.12780076351890846
stp2600
s(I10
I4
tp2601
((dp2602
g3
F-0.011984359843621895
sg4
F1.3415822653402376
s(dp2603
g3
F0.1478466048888435
sg4
F0.10111368066038517
s(dp2604
g3
F0.3008962658176433
sg4
F1.3105443170461584
s(dp2605
g3
F0.14523693654876602
sg4
F0.10403324792556368
stp2606
s(I13
I57
tp2607
((dp2608
g3
F0.013156089934869275
sg4
F1.3354892276590542
s(dp2609
g3
F0.1476931335525613
sg4
F0.10651216147383025
s(dp2610
g3
F3.816113263178761
sg4
F1.6454928933837716
s(dp2611
g3
F0.18404523825194996
sg4
F0.13753069251025507
stp2612
s(I11
I9
tp2613
((dp2614
g3
F-0.027499007792740504
sg4
F1.3245253414669214
s(dp2615
g3
F0.1479047797009121
sg4
F0.10976321468045147
s(dp2616
g3
F0.6908141076140426
sg4
F1.3733494041934105
s(dp2617
g3
F0.15247630765442444
sg4
F0.1134307365340751
stp2618
s(I7
I71
tp2619
((dp2620
g3
F0.015766913840487895
sg4
F1.2670019988125285
s(dp2621
g3
F0.13954085485065132
sg4
F0.09989056815309039
s(dp2622
g3
F4.023286227674706
sg4
F1.6504852368863447
s(dp2623
g3
F0.18574553191403975
sg4
F0.1351705071634708
stp2624
s(I12
I18
tp2625
((dp2626
g3
F-0.0008792975207172482
sg4
F1.3460877801760456
s(dp2627
g3
F0.1493544509448438
sg4
F0.1071858937890744
s(dp2628
g3
F1.3946013320047221
sg4
F1.3823670838374187
s(dp2629
g3
F0.15612355243089326
sg4
F0.11395029053486216
stp2630
s(I13
I19
tp2631
((dp2632
g3
F-0.02295998155469947
sg4
F1.367712206297357
s(dp2633
g3
F0.15160483201709307
sg4
F0.1112371243312511
s(dp2634
g3
F1.5211414559919803
sg4
F1.4506896398864497
s(dp2635
g3
F0.16283039714269698
sg4
F0.11534898167855046
stp2636
s(I10
I72
tp2637
((dp2638
g3
F0.011436372635633685
sg4
F1.302136056623922
s(dp2639
g3
F0.14333164679027904
sg4
F0.10506749445274499
s(dp2640
g3
F4.114236736784221
sg4
F1.7048524608270883
s(dp2641
g3
F0.1916693169515553
sg4
F0.1304874236325344
stp2642
s(I8
I88
tp2643
((dp2644
g3
F0.022818057875578113
sg4
F1.1311096998396772
s(dp2645
g3
F0.12311186476183245
sg4
F0.09226373486564121
s(dp2646
g3
F2.758348516822142
sg4
F2.5325505889103193
s(dp2647
g3
F0.3371031216041662
sg4
F0.2743863626026686
stp2648
s(I12
I70
tp2649
((dp2650
g3
F0.0006413257191599797
sg4
F1.287615191453806
s(dp2651
g3
F0.14159136023808072
sg4
F0.10438419496101847
s(dp2652
g3
F4.1350550680762215
sg4
F1.7134822465787303
s(dp2653
g3
F0.18871283463137045
sg4
F0.14056968826448846
stp2654
s(I10
I82
tp2655
((dp2656
g3
F-0.010829120958710803
sg4
F1.2251133141945547
s(dp2657
g3
F0.13444105569322007
sg4
F0.09732712586183778
s(dp2658
g3
F3.9794488352170116
sg4
F1.8789296076366866
s(dp2659
g3
F0.2071339851735159
sg4
F0.15876950037743165
stp2660
s(I6
I20
tp2661
((dp2662
g3
F0.0012951533840466212
sg4
F1.2153844803627574
s(dp2663
g3
F0.13276126224070572
sg4
F0.09704727901800458
s(dp2664
g3
F1.1123120821982075
sg4
F1.2979565843229113
s(dp2665
g3
F0.1441593936198925
sg4
F0.09804837764205099
stp2666
s(I8
I39
tp2667
((dp2668
g3
F-0.02199230781948891
sg4
F1.3000555002666143
s(dp2669
g3
F0.14335533476877999
sg4
F0.09797164483356435
s(dp2670
g3
F2.5238815943515216
sg4
F1.4595943926161772
s(dp2671
g3
F0.16278099409945046
sg4
F0.11611652400617867
stp2672
s(I7
I17
tp2673
((dp2674
g3
F-0.004372958500726942
sg4
F1.2612501555570765
s(dp2675
g3
F0.14196024440100252
sg4
F0.10502299809344984
s(dp2676
g3
F1.0105674643756162
sg4
F1.3286771584153774
s(dp2677
g3
F0.14841722161070137
sg4
F0.1055408590557062
stp2678
s(I11
I82
tp2679
((dp2680
g3
F-0.021031998197045598
sg4
F1.2190754098013827
s(dp2681
g3
F0.13482059421889547
sg4
F0.09983950000153419
s(dp2682
g3
F3.944493828957146
sg4
F1.8453007153377228
s(dp2683
g3
F0.20227269676017867
sg4
F0.1514293453554012
stp2684
s(I9
I38
tp2685
((dp2686
g3
F0.012938240935557177
sg4
F1.29415669595181
s(dp2687
g3
F0.14177823999664751
sg4
F0.09816964063914002
s(dp2688
g3
F2.567557799703601
sg4
F1.4711959087365534
s(dp2689
g3
F0.16202035924854186
sg4
F0.11028291451813821
stp2690
s(I6
I46
tp2691
((dp2692
g3
F0.016636096866389227
sg4
F1.2575055181995927
s(dp2693
g3
F0.1393134833415065
sg4
F0.09979009160517194
s(dp2694
g3
F2.6420960216278404
sg4
F1.4554024551348905
s(dp2695
g3
F0.1635233611140985
sg4
F0.11780594535149191
stp2696
s(I10
I37
tp2697
((dp2698
g3
F-0.0063608159499422
sg4
F1.3167615215105337
s(dp2699
g3
F0.14552252011919042
sg4
F0.10351914538276286
s(dp2700
g3
F2.6418382062175456
sg4
F1.4999057621106118
s(dp2701
g3
F0.16600597040827636
sg4
F0.11466326656074732
stp2702
s(I8
I13
tp2703
((dp2704
g3
F0.007244237474205217
sg4
F1.2802634770460013
s(dp2705
g3
F0.14232192166501434
sg4
F0.10510722276833839
s(dp2706
g3
F0.8381220818769357
sg4
F1.3097910560888444
s(dp2707
g3
F0.14631660355295528
sg4
F0.09731975097586698
stp2708
s(I7
I47
tp2709
((dp2710
g3
F0.029038536548454452
sg4
F1.2758197565978535
s(dp2711
g3
F0.14055568407506913
sg4
F0.10160125085758454
s(dp2712
g3
F2.881695166882292
sg4
F1.4864829242848565
s(dp2713
g3
F0.16509718566763976
sg4
F0.11447650645308449
stp2714
s(I13
I88
tp2715
((dp2716
g3
F-0.0019544739898399444
sg4
F1.1109357170734384
s(dp2717
g3
F0.1207874376569461
sg4
F0.0880941313700987
s(dp2718
g3
F2.7569801580975435
sg4
F2.4997700373846485
s(dp2719
g3
F0.3187879796318567
sg4
F0.25277676000964133
stp2720
s(I11
I40
tp2721
((dp2722
g3
F-0.0007933625723236526
sg4
F1.2952535555251818
s(dp2723
g3
F0.14233451540593617
sg4
F0.10227551108139976
s(dp2724
g3
F2.8653343648736875
sg4
F1.5272043602282037
s(dp2725
g3
F0.17001764245998086
sg4
F0.12211174044315021
stp2726
s(I9
I8
tp2727
((dp2728
g3
F-0.002538250175359691
sg4
F1.296301422055866
s(dp2729
g3
F0.14256344902590706
sg4
F0.10264010967323756
s(dp2730
g3
F0.5493610448100594
sg4
F1.3304200725315103
s(dp2731
g3
F0.1486960794260891
sg4
F0.10606404523778512
stp2732
s(I6
I64
tp2733
((dp2734
g3
F0.020457846706109395
sg4
F1.244316679230253
s(dp2735
g3
F0.13803610002550115
sg4
F0.0963689234584999
s(dp2736
g3
F3.7107474630217094
sg4
F1.624825582590955
s(dp2737
g3
F0.18095759037745296
sg4
F0.13042872802613725
stp2738
s(I12
I51
tp2739
((dp2740
g3
F-0.012555534489657072
sg4
F1.297069577894418
s(dp2741
g3
F0.1434074358468913
sg4
F0.10131118782534942
s(dp2742
g3
F3.55387136891179
sg4
F1.6135011915321376
s(dp2743
g3
F0.17979968844077243
sg4
F0.12980996202994521
stp2744
s(I10
I15
tp2745
((dp2746
g3
F0.007780300621895719
sg4
F1.3031172777901259
s(dp2747
g3
F0.14336629960406166
sg4
F0.10160388295602729
s(dp2748
g3
F1.0675734720355
sg4
F1.3926808507031438
s(dp2749
g3
F0.15466771582660144
sg4
F0.11228336315203091
stp2750
s(I8
I19
tp2751
((dp2752
g3
F0.01549210205972229
sg4
F1.2757610535631312
s(dp2753
g3
F0.13995747402943393
sg4
F0.09839539290148092
s(dp2754
g3
F1.2178765962850306
sg4
F1.3670072433636729
s(dp2755
g3
F0.1516235487070139
sg4
F0.10537753452683685
stp2756
s(I13
I50
tp2757
((dp2758
g3
F0.02015626611110588
sg4
F1.3416651907422554
s(dp2759
g3
F0.1481886302619113
sg4
F0.10967344350913688
s(dp2760
g3
F3.5554125564701335
sg4
F1.6479561621897427
s(dp2761
g3
F0.18200756872327428
sg4
F0.13155247127900804
stp2762
s(I11
I14
tp2763
((dp2764
g3
F-0.013649874693556496
sg4
F1.3227245899493503
s(dp2765
g3
F0.1451133003561994
sg4
F0.10070195732064113
s(dp2766
g3
F1.0553524026968266
sg4
F1.354409551038825
s(dp2767
g3
F0.15038047624949458
sg4
F0.1096212984440248
stp2768
s(I9
I18
tp2769
((dp2770
g3
F0.0024467273284221047
sg4
F1.2910084338061747
s(dp2771
g3
F0.14167838298439311
sg4
F0.0965982822505509
s(dp2772
g3
F1.2493283407565752
sg4
F1.3630539890191853
s(dp2773
g3
F0.15162352911973964
sg4
F0.10956183050912682
stp2774
s(I12
I9
tp2775
((dp2776
g3
F0.0073600417145045505
sg4
F1.319156926910519
s(dp2777
g3
F0.14495501681003486
sg4
F0.09910345530150799
s(dp2778
g3
F0.7119957883499086
sg4
F1.3867277735757968
s(dp2779
g3
F0.15366311751461892
sg4
F0.10739463069323563
stp2780
s(I13
I12
tp2781
((dp2782
g3
F-0.03513160153927042
sg4
F1.3446066026407233
s(dp2783
g3
F0.14780960108123464
sg4
F0.10097173308424134
s(dp2784
g3
F0.9488966362541422
sg4
F1.4044906601870157
s(dp2785
g3
F0.15538062054914525
sg4
F0.10958200531904505
stp2786
s(I9
I69
tp2787
((dp2788
g3
F-0.02955284207888753
sg4
F1.2704758676906112
s(dp2789
g3
F0.1395255784987992
sg4
F0.10018692907845739
s(dp2790
g3
F4.113145838313385
sg4
F1.7360510989325257
s(dp2791
g3
F0.19524684994530173
sg4
F0.140579205253074
stp2792
s(I6
I15
tp2793
((dp2794
g3
F0.0020470349105645713
sg4
F1.2031219405652696
s(dp2795
g3
F0.13211208242538297
sg4
F0.094413064636097
s(dp2796
g3
F0.8206425223706206
sg4
F1.2829173448700546
s(dp2797
g3
F0.14601354838642766
sg4
F0.0962548440980564
stp2798
s(I8
I46
tp2799
((dp2800
g3
F0.029988840475301703
sg4
F1.3136900054906828
s(dp2801
g3
F0.14695471435291152
sg4
F0.11080947168367128
s(dp2802
g3
F2.97327074455238
sg4
F1.5260241694339045
s(dp2803
g3
F0.16976489442786713
sg4
F0.11881856195131368
stp2804
s(I7
I14
tp2805
((dp2806
g3
F0.0013393032103026226
sg4
F1.218302678605887
s(dp2807
g3
F0.13408373634514448
sg4
F0.09168561779721274
s(dp2808
g3
F0.8270697761543282
sg4
F1.328122392529672
s(dp2809
g3
F0.14894217357081885
sg4
F0.10764987433333062
stp2810
s(I11
I75
tp2811
((dp2812
g3
F0.020843007993974094
sg4
F1.3029453416981498
s(dp2813
g3
F0.14530356415307616
sg4
F0.11044244014386595
s(dp2814
g3
F4.152261266021646
sg4
F1.7721938183607453
s(dp2815
g3
F0.19857310159495878
sg4
F0.14613698944548537
stp2816
s(I9
I47
tp2817
((dp2818
g3
F0.0048602904595573815
sg4
F1.3095135171623933
s(dp2819
g3
F0.14447002755891997
sg4
F0.10551578966699515
s(dp2820
g3
F3.200686129270009
sg4
F1.549318416206615
s(dp2821
g3
F0.17202931625045537
sg4
F0.12186680328360566
stp2822
s(I6
I33
tp2823
((dp2824
g3
F0.012555288279458399
sg4
F1.245406488943517
s(dp2825
g3
F0.13753229170060177
sg4
F0.10130019836638604
s(dp2826
g3
F1.8378991924552093
sg4
F1.371632671174893
s(dp2827
g3
F0.15278160407159214
sg4
F0.10699443936087405
stp2828
s(I10
I44
tp2829
((dp2830
g3
F-0.012196602462690387
sg4
F1.3311494501902756
s(dp2831
g3
F0.14702542875439784
sg4
F0.10759655673563617
s(dp2832
g3
F3.049675319170901
sg4
F1.5323881893647895
s(dp2833
g3
F0.17043986778500386
sg4
F0.12140321007458865
stp2834
s(I8
I52
tp2835
((dp2836
g3
F-0.002229035383563782
sg4
F1.2965985009974048
s(dp2837
g3
F0.14298553885603005
sg4
F0.10283300841005849
s(dp2838
g3
F3.3552869597308046
sg4
F1.5785689222156516
s(dp2839
g3
F0.1787817071407516
sg4
F0.12747605239012816
stp2840
s(I7
I36
tp2841
((dp2842
g3
F-0.003000277706810439
sg4
F1.2358294584093512
s(dp2843
g3
F0.13670434571750695
sg4
F0.09914541198852633
s(dp2844
g3
F2.1635028140007986
sg4
F1.4228440182976172
s(dp2845
g3
F0.15772004830553032
sg4
F0.11435599723160927
stp2846
s(I13
I81
tp2847
((dp2848
g3
F-0.01270140077574855
sg4
F1.1953074129644174
s(dp2849
g3
F0.131532307487208
sg4
F0.09665822017476988
s(dp2850
g3
F4.029702951808117
sg4
F1.8734466240632883
s(dp2851
g3
F0.20599016319327035
sg4
F0.15431787824828935
stp2852
s(I11
I33
tp2853
((dp2854
g3
F0.009477242052232882
sg4
F1.307667511312991
s(dp2855
g3
F0.1443021330856169
sg4
F0.10120959308676958
s(dp2856
g3
F2.4513825735522543
sg4
F1.4795052709381682
s(dp2857
g3
F0.1648163703846639
sg4
F0.11479207986308115
stp2858
s(I9
I49
tp2859
((dp2860
g3
F-0.012971995191625174
sg4
F1.2797791472737374
s(dp2861
g3
F0.14101604129951528
sg4
F0.09918492279804181
s(dp2862
g3
F3.279132341200098
sg4
F1.5609268106050591
s(dp2863
g3
F0.1723138517011571
sg4
F0.128046909570402
stp2864
s(I6
I59
tp2865
((dp2866
g3
F0.017895301859303547
sg4
F1.2627491617111415
s(dp2867
g3
F0.13909835555163552
sg4
F0.09892889797340032
s(dp2868
g3
F3.47170014764653
sg4
F1.542697358035515
s(dp2869
g3
F0.1768516104768607
sg4
F0.12155195662203266
stp2870
s(I12
I42
tp2871
((dp2872
g3
F-0.018892683559785795
sg4
F1.3477523884337654
s(dp2873
g3
F0.14981140050495645
sg4
F0.10346232978414971
s(dp2874
g3
F3.0505309574938684
sg4
F1.539481577948471
s(dp2875
g3
F0.17250288645402767
sg4
F0.12258463231329386
stp2876
s(I10
I54
tp2877
((dp2878
g3
F-0.01299151063813464
sg4
F1.2940149199864255
s(dp2879
g3
F0.14283584188058562
sg4
F0.10295897216357797
s(dp2880
g3
F3.6301150793752983
sg4
F1.6385408162034152
s(dp2881
g3
F0.18100928568977803
sg4
F0.13028366354704968
stp2882
s(I8
I26
tp2883
((dp2884
g3
F-0.0036628651754487818
sg4
F1.254364172163311
s(dp2885
g3
F0.13821622736863248
sg4
F0.09739330221772324
s(dp2886
g3
F1.6699193640448176
sg4
F1.3858096330163399
s(dp2887
g3
F0.15393282514378148
sg4
F0.10731085597186196
stp2888
s(I13
I43
tp2889
((dp2890
g3
F0.022659378180170053
sg4
F1.3313320056487457
s(dp2891
g3
F0.14666597376888435
sg4
F0.10698208251830565
s(dp2892
g3
F3.1846923169187296
sg4
F1.588181264913538
s(dp2893
g3
F0.1761625952601702
sg4
F0.1302319520854317
stp2894
s(I11
I7
tp2895
((dp2896
g3
F0.011817021177073617
sg4
F1.3495184014144808
s(dp2897
g3
F0.14927379816675412
sg4
F0.10570402004929069
s(dp2898
g3
F0.5059797974702329
sg4
F1.392332850123747
s(dp2899
g3
F0.15473981674330306
sg4
F0.10899828455459126
stp2900
s(I9
I27
tp2901
((dp2902
g3
F0.02058178616667483
sg4
F1.288566474673837
s(dp2903
g3
F0.14244000054946487
sg4
F0.10119253558098518
s(dp2904
g3
F1.8460334826815568
sg4
F1.3984850331301455
s(dp2905
g3
F0.15509322378440915
sg4
F0.11484279567927314
stp2906
s(I12
I0
tp2907
((dp2908
g3
F-0.02311706289768245
sg4
F1.3505142563471977
s(dp2909
g3
F0.14840415812437724
sg4
F0.10936537145911296
s(dp2910
g3
F0.004832251109648578
sg4
F1.3809262396522357
s(dp2911
g3
F0.15299923517965197
sg4
F0.10666259509394704
stp2912
s(I10
I16
tp2913
((dp2914
g3
F0.020330944369916004
sg4
F1.2994502343562784
s(dp2915
g3
F0.1437009637316508
sg4
F0.10240548350131373
s(dp2916
g3
F1.1470274101425568
sg4
F1.3494664922354225
s(dp2917
g3
F0.15088943503317043
sg4
F0.1055016411948212
stp2918
s(I13
I5
tp2919
((dp2920
g3
F-0.01526874049537974
sg4
F1.3522366532894408
s(dp2921
g3
F0.147878431861873
sg4
F0.10146303690025338
s(dp2922
g3
F0.4438448373392816
sg4
F1.376629032673737
s(dp2923
g3
F0.15187215280948474
sg4
F0.11008975395087306
stp2924
s(I11
I29
tp2925
((dp2926
g3
F-0.007216343029348593
sg4
F1.3426538632421212
s(dp2927
g3
F0.14871193423962525
sg4
F0.1077338618157968
s(dp2928
g3
F2.131714495605343
sg4
F1.439221856637993
s(dp2929
g3
F0.16135953123921398
sg4
F0.10961887197307252
stp2930
s(I7
I83
tp2931
((dp2932
g3
F0.005491303860575947
sg4
F1.2329903682537093
s(dp2933
g3
F0.1360795148676271
sg4
F0.09920525960093918
s(dp2934
g3
F3.8764849880694374
sg4
F1.949212743216868
s(dp2935
g3
F0.21508789356443136
sg4
F0.17309502139481003
stp2936
s(I12
I30
tp2937
((dp2938
g3
F0.02908044766152651
sg4
F1.3326301225051966
s(dp2939
g3
F0.1474884330556005
sg4
F0.10676075259549334
s(dp2940
g3
F2.275489911043265
sg4
F1.462585600774844
s(dp2941
g3
F0.16162829192761552
sg4
F0.11046662717467037
stp2942
s(I8
I70
tp2943
((dp2944
g3
F-0.027593067442434505
sg4
F1.2608393170032532
s(dp2945
g3
F0.13836439850343962
sg4
F0.10127457925114625
s(dp2946
g3
F4.0609782478955285
sg4
F1.7494345400503006
s(dp2947
g3
F0.19315794843387568
sg4
F0.1344612268930102
stp2948
s(I13
I31
tp2949
((dp2950
g3
F0.03175093054801925
sg4
F1.3210582486670304
s(dp2951
g3
F0.14510203713275016
sg4
F0.10684344832329096
s(dp2952
g3
F2.392374301853077
sg4
F1.4622202109056184
s(dp2953
g3
F0.16341941696191054
sg4
F0.11951425071100585
stp2954
s(I9
I78
tp2955
((dp2956
g3
F0.018475941061331103
sg4
F1.2755044410408507
s(dp2957
g3
F0.14015992245462022
sg4
F0.10559630323229863
s(dp2958
g3
F4.124504271153251
sg4
F1.8216132620086725
s(dp2959
g3
F0.20057956385553144
sg4
F0.1432639984459212
stp2960
s(I10
I68
tp2961
((dp2962
g3
F-0.005935294147079162
sg4
F1.2915309329175662
s(dp2963
g3
F0.14138470167847583
sg4
F0.10091381011862821
s(dp2964
g3
F4.121945662357239
sg4
F1.7254289926346225
s(dp2965
g3
F0.1940193270416053
sg4
F0.1351592600601207
stp2966
s(I6
I6
tp2967
((dp2968
g3
F0.019519483643191782
sg4
F1.2014790509193527
s(dp2969
g3
F0.13196727211250814
sg4
F0.09272941654029176
s(dp2970
g3
F0.31230607055824233
sg4
F1.226157032407375
s(dp2971
g3
F0.13606031778172833
sg4
F0.09805945959737405
stp2972
s(I7
I7
tp2973
((dp2974
g3
F0.006585495855253587
sg4
F1.2651977677888293
s(dp2975
g3
F0.13982723465315827
sg4
F0.0989231760524728
s(dp2976
g3
F0.4175093858360148
sg4
F1.2699536443109574
s(dp2977
g3
F0.14067355099012158
sg4
F0.09467897036653061
stp2978
s(I11
I64
tp2979
((dp2980
g3
F0.01783633656599548
sg4
F1.3240562915702538
s(dp2981
g3
F0.1467623098781834
sg4
F0.11121793367145583
s(dp2982
g3
F4.045126893791141
sg4
F1.694081559717905
s(dp2983
g3
F0.18756399685555847
sg4
F0.13575802121070402
stp2984
s(I12
I82
tp2985
((dp2986
g3
F-0.0034416298754100794
sg4
F1.2380969741940442
s(dp2987
g3
F0.13614985539727797
sg4
F0.09932033443458921
s(dp2988
g3
F3.977450557348579
sg4
F1.8584477275963878
s(dp2989
g3
F0.20460444232034947
sg4
F0.1477622920504852
stp2990
s(I9
I80
tp2991
((dp2992
g3
F0.01552018379080411
sg4
F1.20757406216889
s(dp2993
g3
F0.13312504969269012
sg4
F0.09666912406071271
s(dp2994
g3
F4.034552097222004
sg4
F1.8258964824836368
s(dp2995
g3
F0.20225939149593763
sg4
F0.14288951924677917
stp2996
s(I6
I24
tp2997
((dp2998
g3
F-0.007561420788467665
sg4
F1.251373577228372
s(dp2999
g3
F0.1375095211002343
sg4
F0.09444666943127211
s(dp3000
g3
F1.3258455362190698
sg4
F1.2861165752558783
s(dp3001
g3
F0.14385172070439944
sg4
F0.0947851960006647
stp3002
s(I8
I59
tp3003
((dp3004
g3
F-0.017725692279977445
sg4
F1.2829277066327145
s(dp3005
g3
F0.14208149464970654
sg4
F0.10398864829930043
s(dp3006
g3
F3.748227960858199
sg4
F1.6066973640551445
s(dp3007
g3
F0.18107277583417591
sg4
F0.13403527210525534
stp3008
s(I7
I29
tp3009
((dp3010
g3
F0.00883040165816995
sg4
F1.2272858941514428
s(dp3011
g3
F0.1353619269384282
sg4
F0.09465571202265999
s(dp3012
g3
F1.7594593109640497
sg4
F1.3474070589010343
s(dp3013
g3
F0.15013864951795597
sg4
F0.09632380301006893
stp3014
s(I13
I74
tp3015
((dp3016
g3
F-0.0026235357472230714
sg4
F1.2730970613101014
s(dp3017
g3
F0.13995054594564893
sg4
F0.10194492327261195
s(dp3018
g3
F4.173264056771777
sg4
F1.741538398014475
s(dp3019
g3
F0.19304206849409056
sg4
F0.13782533927358942
stp3020
s(I11
I38
tp3021
((dp3022
g3
F0.002184196507859948
sg4
F1.309627593262406
s(dp3023
g3
F0.14387868753123584
sg4
F0.10269418478229375
s(dp3024
g3
F2.726697399046524
sg4
F1.5171998892953193
s(dp3025
g3
F0.1678355383341248
sg4
F0.1212233649002068
stp3026
s(I9
I58
tp3027
((dp3028
g3
F0.018282526882024808
sg4
F1.3218932583268062
s(dp3029
g3
F0.1458915982265631
sg4
F0.10575490155935852
s(dp3030
g3
F3.720407004182672
sg4
F1.634595389197781
s(dp3031
g3
F0.1818206883363973
sg4
F0.13597067985371014
stp3032
s(I6
I50
tp3033
((dp3034
g3
F0.008457298964902327
sg4
F1.232012191476688
s(dp3035
g3
F0.13585073231982048
sg4
F0.09357319152533494
s(dp3036
g3
F2.897651145298837
sg4
F1.4579841906306918
s(dp3037
g3
F0.16300356217377732
sg4
F0.11503950879246971
stp3038
s(I12
I33
tp3039
((dp3040
g3
F0.016568328768930662
sg4
F1.335528977582305
s(dp3041
g3
F0.14609992089582968
sg4
F0.10820340682774754
s(dp3042
g3
F2.467380729424531
sg4
F1.4751794778476994
s(dp3043
g3
F0.1638729208495504
sg4
F0.11316589645322828
stp3044
s(I10
I49
tp3045
((dp3046
g3
F-0.016551587549849978
sg4
F1.3006730461313
s(dp3047
g3
F0.1437490922691178
sg4
F0.10337982407320123
s(dp3048
g3
F3.3748499588599774
sg4
F1.549674288036019
s(dp3049
g3
F0.17164192743041173
sg4
F0.11577527005148602
stp3050
s(I8
I1
tp3051
((dp3052
g3
F-0.004677820927836862
sg4
F1.307812464145235
s(dp3053
g3
F0.14420343217524345
sg4
F0.10668934822455034
s(dp3054
g3
F0.060466745398154664
sg4
F1.285732695905196
s(dp3055
g3
F0.142040462284599
sg4
F0.10179226463657354
stp3056
s(I7
I59
tp3057
((dp3058
g3
F0.022398189399922774
sg4
F1.266909543070723
s(dp3059
g3
F0.13902110373809934
sg4
F0.10154826310410325
s(dp3060
g3
F3.6201319289474814
sg4
F1.613730470933602
s(dp3061
g3
F0.17969307550156088
sg4
F0.13608872999242727
stp3062
s(I13
I36
tp3063
((dp3064
g3
F-0.026363133931988636
sg4
F1.3639548710859049
s(dp3065
g3
F0.15024448900796472
sg4
F0.1096552691927819
s(dp3066
g3
F2.7414193965294915
sg4
F1.5324153039648523
s(dp3067
g3
F0.1693052700180333
sg4
F0.11737174583326104
stp3068
s(I11
I60
tp3069
((dp3070
g3
F0.0038365143726357687
sg4
F1.3146213671118856
s(dp3071
g3
F0.14502017043470006
sg4
F0.10389371372618827
s(dp3072
g3
F3.9081167146001636
sg4
F1.6758411797916992
s(dp3073
g3
F0.18564112443198022
sg4
F0.13403251141343642
stp3074
s(I9
I28
tp3075
((dp3076
g3
F0.021322470318966946
sg4
F1.295276047989747
s(dp3077
g3
F0.14187861015661107
sg4
F0.09592414007608108
s(dp3078
g3
F1.9337459643036237
sg4
F1.433521482565586
s(dp3079
g3
F0.15961386248674492
sg4
F0.10981710560161906
stp3080
s(I6
I84
tp3081
((dp3082
g3
F-0.01992499325812347
sg4
F1.206314287589177
s(dp3083
g3
F0.13252061284053918
sg4
F0.09381179975665355
s(dp3084
g3
F3.7379990922768176
sg4
F1.9503637633279685
s(dp3085
g3
F0.21573368144211935
sg4
F0.1787809595980031
stp3086
s(I12
I63
tp3087
((dp3088
g3
F0.014817890573949777
sg4
F1.3046705941008074
s(dp3089
g3
F0.14407599369136348
sg4
F0.10548850959080935
s(dp3090
g3
F3.9776554016989802
sg4
F1.6793723427090044
s(dp3091
g3
F0.18677532428498322
sg4
F0.1334938160002188
stp3092
s(I10
I27
tp3093
((dp3094
g3
F-0.003890002443609375
sg4
F1.301229840828816
s(dp3095
g3
F0.14293143786670764
sg4
F0.10136530839134394
s(dp3096
g3
F1.9151547650438165
sg4
F1.4371387263834543
s(dp3097
g3
F0.16120391887392493
sg4
F0.1170306939228345
stp3098
s(I13
I62
tp3099
((dp3100
g3
F0.03339053804619896
sg4
F1.3064288701239657
s(dp3101
g3
F0.14357310234814585
sg4
F0.10297530838904101
s(dp3102
g3
F3.9663706834762715
sg4
F1.713693434859856
s(dp3103
g3
F0.19522444420045737
sg4
F0.1402465257696598
stp3104
s(I11
I18
tp3105
((dp3106
g3
F-0.021383638297967633
sg4
F1.3200760691987306
s(dp3107
g3
F0.14619763525533447
sg4
F0.09987488846027381
s(dp3108
g3
F1.3471150978366255
sg4
F1.3857401396889597
s(dp3109
g3
F0.15600171082244563
sg4
F0.11260953221259473
stp3110
s(I7
I72
tp3111
((dp3112
g3
F0.0017546920871340799
sg4
F1.254609686072231
s(dp3113
g3
F0.13845023506153648
sg4
F0.09545590781270219
s(dp3114
g3
F4.034998841083617
sg4
F1.7095570172690444
s(dp3115
g3
F0.19076456688194865
sg4
F0.13265724283738134
stp3116
s(I12
I21
tp3117
((dp3118
g3
F0.0028730841490187675
sg4
F1.342956195112609
s(dp3119
g3
F0.147360792085724
sg4
F0.10317316365083395
s(dp3120
g3
F1.6209341516879623
sg4
F1.4320874577744456
s(dp3121
g3
F0.16001189421642392
sg4
F0.10994497679884552
stp3122
s(I8
I77
tp3123
((dp3124
g3
F0.02665624118240073
sg4
F1.238882174820871
s(dp3125
g3
F0.13705353696357053
sg4
F0.09278078719255134
s(dp3126
g3
F4.1283170189937595
sg4
F1.7773977571538073
s(dp3127
g3
F0.1975697254638833
sg4
F0.136977926552604
stp3128
s(I13
I24
tp3129
((dp3130
g3
F-0.002894552283390084
sg4
F1.3868499383118083
s(dp3131
g3
F0.15352578205535816
sg4
F0.11469926709231038
s(dp3132
g3
F1.8670366892033194
sg4
F1.4372299078028528
s(dp3133
g3
F0.16020712041258167
sg4
F0.11312810925963945
stp3134
s(I10
I79
tp3135
((dp3136
g3
F0.005973289639826351
sg4
F1.269771150457718
s(dp3137
g3
F0.13991133203377581
sg4
F0.10206181800307368
s(dp3138
g3
F4.076181215956172
sg4
F1.8019945541052873
s(dp3139
g3
F0.19834701838609892
sg4
F0.14390887436076205
stp3140
s(I8
I83
tp3141
((dp3142
g3
F0.013232178065044398
sg4
F1.2564932499179533
s(dp3143
g3
F0.13788063364894626
sg4
F0.09913281957158748
s(dp3144
g3
F3.833775110115525
sg4
F1.944138124121825
s(dp3145
g3
F0.21700116887327336
sg4
F0.1678207623624477
stp3146
s(I12
I73
tp3147
((dp3148
g3
F0.006626500983254235
sg4
F1.2925906410775512
s(dp3149
g3
F0.14216835179286502
sg4
F0.10114742676438604
s(dp3150
g3
F4.169185996051829
sg4
F1.7428008570128786
s(dp3151
g3
F0.19486064807592962
sg4
F0.13679543126060367
stp3152
s(I9
I89
tp3153
((dp3154
g3
F0.0062572294852465404
sg4
F1.0665899847424847
s(dp3155
g3
F0.11394548413067807
sg4
F0.08171101174731121
s(dp3156
g3
F2.1485883601515923
sg4
F2.7394572250423166
s(dp3157
g3
F0.3801320748316295
sg4
F0.32039066545323736
stp3158
s(I6
I19
tp3159
((dp3160
g3
F0.015446882911892779
sg4
F1.2267565804084533
s(dp3161
g3
F0.13654571259143844
sg4
F0.10042507590602101
s(dp3162
g3
F1.0355135560979671
sg4
F1.2899684100846516
s(dp3163
g3
F0.14591893532227895
sg4
F0.09691739418443768
stp3164
s(I8
I34
tp3165
((dp3166
g3
F0.007905175526200292
sg4
F1.269756679130609
s(dp3167
g3
F0.1395054943776632
sg4
F0.09748661218098098
s(dp3168
g3
F2.2148834635739583
sg4
F1.4410347606868057
s(dp3169
g3
F0.16069332138922743
sg4
F0.11104982862257473
stp3170
s(I7
I26
tp3171
((dp3172
g3
F0.007110432121730792
sg4
F1.2329787006893589
s(dp3173
g3
F0.13536622111446273
sg4
F0.09486019573577131
s(dp3174
g3
F1.5580018786487004
sg4
F1.3363318059712914
s(dp3175
g3
F0.14823826117751304
sg4
F0.10210821321107644
stp3176
s(I13
I67
tp3177
((dp3178
g3
F-0.008842872404660973
sg4
F1.287871372086101
s(dp3179
g3
F0.14148815009802973
sg4
F0.10270572814848611
s(dp3180
g3
F4.130250523564437
sg4
F1.7642022508645687
s(dp3181
g3
F0.19616778852792827
sg4
F0.14395198890650385
stp3182
s(I9
I35
tp3183
((dp3184
g3
F-0.004878959671464234
sg4
F1.2805297284090913
s(dp3185
g3
F0.14108610778578878
sg4
F0.09884164576109733
s(dp3186
g3
F2.3711485578473175
sg4
F1.4877767055806164
s(dp3187
g3
F0.16558722591474662
sg4
F0.11839450490421455
stp3188
s(I6
I53
tp3189
((dp3190
g3
F-0.015316457955651508
sg4
F1.258508193599876
s(dp3191
g3
F0.1381653466728286
sg4
F0.09888524170834667
s(dp3192
g3
F3.0981289872247864
sg4
F1.4776593778258207
s(dp3193
g3
F0.1681156957383374
sg4
F0.11874368778335198
stp3194
s(I10
I56
tp3195
((dp3196
g3
F-0.01443592899234325
sg4
F1.3165151448294667
s(dp3197
g3
F0.1448388706564223
sg4
F0.10580900409319738
s(dp3198
g3
F3.7127655019604724
sg4
F1.660529981574447
s(dp3199
g3
F0.18741922196532146
sg4
F0.13415426202444247
stp3200
s(I8
I8
tp3201
((dp3202
g3
F-0.014291777794234406
sg4
F1.2895306724337359
s(dp3203
g3
F0.14245413486925673
sg4
F0.102664667642408
s(dp3204
g3
F0.5092287949299168
sg4
F1.3293774174680029
s(dp3205
g3
F0.14801909786164302
sg4
F0.10534436244667256
stp3206
s(I7
I48
tp3207
((dp3208
g3
F0.0009232359222313136
sg4
F1.2644642211281076
s(dp3209
g3
F0.13988234868333982
sg4
F0.10021037344739714
s(dp3210
g3
F2.961100098227666
sg4
F1.5190663625370864
s(dp3211
g3
F0.16827526096722223
sg4
F0.12192147876073334
stp3212
s(I11
I53
tp3213
((dp3214
g3
F-0.014862931791001621
sg4
F1.3362981062116712
s(dp3215
g3
F0.14817364480652861
sg4
F0.10619568089091014
s(dp3216
g3
F3.6166738881081697
sg4
F1.6424071216564924
s(dp3217
g3
F0.18274372181348086
sg4
F0.1351931516203918
stp3218
s(I9
I5
tp3219
((dp3220
g3
F0.0010932703371309138
sg4
F1.286809898949575
s(dp3221
g3
F0.14284445001572899
sg4
F0.09972151428745257
s(dp3222
g3
F0.3567904743201864
sg4
F1.3371253653078523
s(dp3223
g3
F0.1497519729916632
sg4
F0.1094607279004397
stp3224
s(I6
I79
tp3225
((dp3226
g3
F0.003102744542615943
sg4
F1.239901499792611
s(dp3227
g3
F0.13658621949541783
sg4
F0.09951399934962324
s(dp3228
g3
F4.02849488932058
sg4
F1.7629808648551297
s(dp3229
g3
F0.19522218172228722
sg4
F0.140908850225687
stp3230
s(I12
I54
tp3231
((dp3232
g3
F0.008585112252270655
sg4
F1.2880009181659273
s(dp3233
g3
F0.14225713213263436
sg4
F0.09987454983972732
s(dp3234
g3
F3.7264495086748086
sg4
F1.662335996729625
s(dp3235
g3
F0.18644744345484288
sg4
F0.13803538985952746
stp3236
s(I10
I2
tp3237
((dp3238
g3
F0.010373211084094613
sg4
F1.3197680234133342
s(dp3239
g3
F0.14659571729799215
sg4
F0.10811825909690875
s(dp3240
g3
F0.14666326147532582
sg4
F1.3013113061668602
s(dp3241
g3
F0.1435085642503071
sg4
F0.10205624447174999
stp3242
s(I13
I55
tp3243
((dp3244
g3
F0.00290614195333605
sg4
F1.3208165509597958
s(dp3245
g3
F0.1448040497420932
sg4
F0.1048495127555299
s(dp3246
g3
F3.732702180416844
sg4
F1.6635758138312762
s(dp3247
g3
F0.18627406244733047
sg4
F0.13579726683799287
stp3248
s(I11
I11
tp3249
((dp3250
g3
F0.004159356917757151
sg4
F1.3409057336674455
s(dp3251
g3
F0.14896911252526912
sg4
F0.1102603035099361
s(dp3252
g3
F0.8289789483596879
sg4
F1.3939616202634404
s(dp3253
g3
F0.15490090769729103
sg4
F0.10830313833287708
stp3254
s(I7
I65
tp3255
((dp3256
g3
F-0.010903226212087502
sg4
F1.2571005911716302
s(dp3257
g3
F0.13863591580590084
sg4
F0.10211362796093848
s(dp3258
g3
F3.8790703345098994
sg4
F1.6321779599578865
s(dp3259
g3
F0.1832817597932399
sg4
F0.12499118155934985
stp3260
s(I12
I12
tp3261
((dp3262
g3
F-0.004130729427475055
sg4
F1.3485648097397682
s(dp3263
g3
F0.14875352221292626
sg4
F0.10839079490637527
s(dp3264
g3
F0.9340225748373283
sg4
F1.3909738736243498
s(dp3265
g3
F0.15547212399270127
sg4
F0.10702645849732828
stp3266
s(I13
I17
tp3267
((dp3268
g3
F-0.021079399032011725
sg4
F1.3380908760399701
s(dp3269
g3
F0.14703033683365008
sg4
F0.10362346407780476
s(dp3270
g3
F1.3494561354921504
sg4
F1.4347090925610309
s(dp3271
g3
F0.1593587428031349
sg4
F0.10894132678437674
stp3272
s(I12
I64
tp3273
((dp3274
g3
F0.0021545649790006838
sg4
F1.3171320523751975
s(dp3275
g3
F0.1451427822296253
sg4
F0.10446657663937642
s(dp3276
g3
F4.048297600736374
sg4
F1.696219282887326
s(dp3277
g3
F0.19032145329281036
sg4
F0.13731679258958196
stp3278
s(I9
I66
tp3279
((dp3280
g3
F-0.017419018746290815
sg4
F1.2767808669718077
s(dp3281
g3
F0.14101002529833628
sg4
F0.10378018705614445
s(dp3282
g3
F4.010378668215294
sg4
F1.717288628505464
s(dp3283
g3
F0.19159192416939597
sg4
F0.1481037206236585
stp3284
s(I10
I80
tp3285
((dp3286
g3
F0.002623807531360489
sg4
F1.2362163938040642
s(dp3287
g3
F0.1361252221739241
sg4
F0.10470609364503769
s(dp3288
g3
F4.103781760747653
sg4
F1.8010647016947923
s(dp3289
g3
F0.19758914085918544
sg4
F0.13707990171174134
stp3290
s(I6
I10
tp3291
((dp3292
g3
F-0.021479346494394425
sg4
F1.2186427122941534
s(dp3293
g3
F0.13481853450045916
sg4
F0.09000125194506736
s(dp3294
g3
F0.5679606499114509
sg4
F1.274132332071288
s(dp3295
g3
F0.14462644199525443
sg4
F0.09846402557622469
stp3296
s(I8
I41
tp3297
((dp3298
g3
F0.0017386150780667187
sg4
F1.2649886395022132
s(dp3299
g3
F0.1380631237458083
sg4
F0.09269854644400355
s(dp3300
g3
F2.6689048017704295
sg4
F1.4990708515372952
s(dp3301
g3
F0.1676164230112862
sg4
F0.10950501121348644
stp3302
s(I7
I19
tp3303
((dp3304
g3
F0.012148105350695992
sg4
F1.2636037832199394
s(dp3305
g3
F0.1396244946441585
sg4
F0.10309799418882215
s(dp3306
g3
F1.1524579448737615
sg4
F1.3499567008088267
s(dp3307
g3
F0.15078104535702042
sg4
F0.1014585722399961
stp3308
s(I11
I84
tp3309
((dp3310
g3
F0.02572749698002097
sg4
F1.2068456145970752
s(dp3311
g3
F0.13292506884925692
sg4
F0.0916313614972416
s(dp3312
g3
F3.783684712718909
sg4
F1.9964613877121995
s(dp3313
g3
F0.2202909413883356
sg4
F0.17311101118455618
stp3314
s(I9
I36
tp3315
((dp3316
g3
F0.014506145219127298
sg4
F1.2726721354204429
s(dp3317
g3
F0.14076810051437738
sg4
F0.0963504987424687
s(dp3318
g3
F2.435399096134268
sg4
F1.468004649343639
s(dp3319
g3
F0.16570796518591746
sg4
F0.12257372309467707
stp3320
s(I6
I44
tp3321
((dp3322
g3
F-0.005689136243764659
sg4
F1.233438114083249
s(dp3323
g3
F0.1361770165920212
sg4
F0.09448260511668893
s(dp3324
g3
F2.532328080408034
sg4
F1.3803748625724617
s(dp3325
g3
F0.1534371149146745
sg4
F0.10002585874208259
stp3326
s(I10
I35
tp3327
((dp3328
g3
F0.006300738327439159
sg4
F1.2928574905523267
s(dp3329
g3
F0.14174982745463405
sg4
F0.10902469727555508
s(dp3330
g3
F2.4665264735344885
sg4
F1.4597866915095992
s(dp3331
g3
F0.16189021178795948
sg4
F0.11416209026253854
stp3332
s(I8
I15
tp3333
((dp3334
g3
F-0.011871643561287781
sg4
F1.2525808468959099
s(dp3335
g3
F0.13820817208271607
sg4
F0.09673061562928875
s(dp3336
g3
F0.938240175964479
sg4
F1.3595987578126127
s(dp3337
g3
F0.1522296175245924
sg4
F0.11235536458751172
stp3338
s(I7
I41
tp3339
((dp3340
g3
F0.004801869455042018
sg4
F1.2504682398193567
s(dp3341
g3
F0.13809338579616875
sg4
F0.09570599214181497
s(dp3342
g3
F2.5238548959645373
sg4
F1.4511139012131644
s(dp3343
g3
F0.16028825782395728
sg4
F0.10556846252376328
stp3344
s(I13
I86
tp3345
((dp3346
g3
F-0.023489650632451675
sg4
F1.176786684494533
s(dp3347
g3
F0.12820246174330224
sg4
F0.09617640207617872
s(dp3348
g3
F3.6095465887697538
sg4
F2.0859032242747335
s(dp3349
g3
F0.23330982420671864
sg4
F0.16965558589655483
stp3350
s(I11
I42
tp3351
((dp3352
g3
F-0.004797314521870488
sg4
F1.3254555417282736
s(dp3353
g3
F0.1455920919383093
sg4
F0.10305241732367576
s(dp3354
g3
F3.0105373995502482
sg4
F1.5719904843077994
s(dp3355
g3
F0.1767334676280612
sg4
F0.12765634962627648
stp3356
s(I9
I14
tp3357
((dp3358
g3
F0.01207536952734145
sg4
F1.292712710825679
s(dp3359
g3
F0.14202472169262215
sg4
F0.09647445948108468
s(dp3360
g3
F0.9263651743776997
sg4
F1.312423517418448
s(dp3361
g3
F0.14621909094349705
sg4
F0.1021252500850166
stp3362
s(I6
I70
tp3363
((dp3364
g3
F-0.0018306667112417685
sg4
F1.2256541846425442
s(dp3365
g3
F0.13431447364033378
sg4
F0.09504366618134741
s(dp3366
g3
F3.8817944444955987
sg4
F1.6938866885935795
s(dp3367
g3
F0.18912290230149242
sg4
F0.1461280854068603
stp3368
s(I12
I45
tp3369
((dp3370
g3
F-0.019707416479894935
sg4
F1.320375912735606
s(dp3371
g3
F0.14538775571699003
sg4
F0.11327390963378947
s(dp3372
g3
F3.25534515220396
sg4
F1.5695121840519874
s(dp3373
g3
F0.1737467373959274
sg4
F0.12144194419494003
stp3374
s(I10
I13
tp3375
((dp3376
g3
F-0.018018337879691648
sg4
F1.2969813361711195
s(dp3377
g3
F0.14418186864591453
sg4
F0.10092215324694587
s(dp3378
g3
F0.9434910746550533
sg4
F1.3337457169961526
s(dp3379
g3
F0.14749821747180047
sg4
F0.10572982341349024
stp3380
s(I8
I21
tp3381
((dp3382
g3
F-0.005626617713524573
sg4
F1.2890031549030783
s(dp3383
g3
F0.14326986780726486
sg4
F0.10371838127070232
s(dp3384
g3
F1.363011290561725
sg4
F1.3646561416018386
s(dp3385
g3
F0.1514256817800652
sg4
F0.10028935408511541
stp3386
s(I13
I48
tp3387
((dp3388
g3
F0.01599157262944395
sg4
F1.3460948871249605
s(dp3389
g3
F0.14898797734518804
sg4
F0.11253310586440435
s(dp3390
g3
F3.471641591044132
sg4
F1.6191852172492054
s(dp3391
g3
F0.18317705771704595
sg4
F0.12857107116643318
stp3392
s(I11
I0
tp3393
((dp3394
g3
F-0.002946703257871941
sg4
F1.3417744199859016
s(dp3395
g3
F0.14756148885384368
sg4
F0.10377422545753401
s(dp3396
g3
F-0.01990928110084489
sg4
F1.326319555610036
s(dp3397
g3
F0.14642668081048615
sg4
F0.10180466814169731
stp3398
s(I9
I16
tp3399
((dp3400
g3
F-0.005066766258607802
sg4
F1.275765878581082
s(dp3401
g3
F0.14019870653396393
sg4
F0.09568939733272142
s(dp3402
g3
F1.1046628236523972
sg4
F1.3498046606542182
s(dp3403
g3
F0.15035237567241877
sg4
F0.10667733758463804
stp3404
s(I6
I88
tp3405
((dp3406
g3
F0.02615897107363052
sg4
F1.1120000399854548
s(dp3407
g3
F0.12005491611939284
sg4
F0.09005864904825578
s(dp3408
g3
F3.1880607985443765
sg4
F2.1879519452894276
s(dp3409
g3
F0.2439246309366161
sg4
F0.16767388019248064
stp3410
s(I12
I11
tp3411
((dp3412
g3
F-0.005510874654250375
sg4
F1.3496042257825218
s(dp3413
g3
F0.14889350407562374
sg4
F0.10743133239528468
s(dp3414
g3
F0.8293402252840314
sg4
F1.3681398546275347
s(dp3415
g3
F0.15000151839790288
sg4
F0.10061454465152342
stp3416
s(I10
I23
tp3417
((dp3418
g3
F-0.0009418250383441684
sg4
F1.2901371612847938
s(dp3419
g3
F0.14228854613018777
sg4
F0.0974167281427436
s(dp3420
g3
F1.7056048435798852
sg4
F1.3988225364529532
s(dp3421
g3
F0.15478664045638535
sg4
F0.1055736652411674
stp3422
s(I13
I10
tp3423
((dp3424
g3
F-0.015190239874648959
sg4
F1.4113844924250327
s(dp3425
g3
F0.15665709173092074
sg4
F0.11713579970492416
s(dp3426
g3
F0.7943887621040198
sg4
F1.4046259760600557
s(dp3427
g3
F0.15716681637150087
sg4
F0.10887829588718911
stp3428
s(I7
I84
tp3429
((dp3430
g3
F0.005396866361529806
sg4
F1.2170954403221397
s(dp3431
g3
F0.13390520931131045
sg4
F0.0971025002721112
s(dp3432
g3
F3.7882783002196616
sg4
F1.9761630600527162
s(dp3433
g3
F0.21774421043541237
sg4
F0.17104508421103493
stp3434
s(I8
I65
tp3435
((dp3436
g3
F0.011873395771578643
sg4
F1.2726543486759772
s(dp3437
g3
F0.1401966474926551
sg4
F0.10281013132355654
s(dp3438
g3
F3.9642409029625885
sg4
F1.6889751460029419
s(dp3439
g3
F0.19030417746363515
sg4
F0.1317086598586723
stp3440
s(I9
I75
tp3441
((dp3442
g3
F0.022080565420490306
sg4
F1.2987537820477963
s(dp3443
g3
F0.1429352186940504
sg4
F0.1019207402615222
s(dp3444
g3
F4.14121965872041
sg4
F1.7180580514471293
s(dp3445
g3
F0.1910000023450218
sg4
F0.12906546564692856
stp3446
s(I6
I13
tp3447
((dp3448
g3
F-0.011563566781832235
sg4
F1.2116212220927762
s(dp3449
g3
F0.13385543458148086
sg4
F0.09031571034103758
s(dp3450
g3
F0.7086772543037183
sg4
F1.2498615762094736
s(dp3451
g3
F0.13854468518255592
sg4
F0.09688632689051546
stp3452
s(I7
I8
tp3453
((dp3454
g3
F0.00028942311307345037
sg4
F1.2522448340453551
s(dp3455
g3
F0.1384383256686328
sg4
F0.10323599742409484
s(dp3456
g3
F0.4842376106346147
sg4
F1.274335739832956
s(dp3457
g3
F0.14278920560263242
sg4
F0.09927333348600442
stp3458
s(I11
I77
tp3459
((dp3460
g3
F0.005998944660960515
sg4
F1.2753131532736979
s(dp3461
g3
F0.13966790876774748
sg4
F0.102058268708619
s(dp3462
g3
F4.139336271772893
sg4
F1.7831141138831463
s(dp3463
g3
F0.1972421160106652
sg4
F0.13792256463090413
stp3464
s(I12
I85
tp3465
((dp3466
g3
F-0.032746241632883755
sg4
F1.2012387266030338
s(dp3467
g3
F0.13177827207918857
sg4
F0.09529105026206175
s(dp3468
g3
F3.7010780119031033
sg4
F2.035696604530007
s(dp3469
g3
F0.22800155038413905
sg4
F0.17405850650986676
stp3470
s(I9
I45
tp3471
((dp3472
g3
F-0.02557640223711166
sg4
F1.2800011480472484
s(dp3473
g3
F0.14193958646722227
sg4
F0.10689834854651692
s(dp3474
g3
F3.072122807172562
sg4
F1.5038742295423697
s(dp3475
g3
F0.16975134288514027
sg4
F0.11669701300270374
stp3476
s(I6
I39
tp3477
((dp3478
g3
F0.011668502098491462
sg4
F1.2525288801966528
s(dp3479
g3
F0.13822566777050949
sg4
F0.09888324888835687
s(dp3480
g3
F2.1931460640839058
sg4
F1.3997877465574298
s(dp3481
g3
F0.15603917332518158
sg4
F0.10994269751029417
stp3482
s(I10
I42
tp3483
((dp3484
g3
F0.01541267948771785
sg4
F1.313328994617522
s(dp3485
g3
F0.14536983920281704
sg4
F0.10210536102979062
s(dp3486
g3
F2.919816442291024
sg4
F1.53021359608537
s(dp3487
g3
F0.17273937410942497
sg4
F0.12426102453185706
stp3488
s(I8
I54
tp3489
((dp3490
g3
F0.005221659022117686
sg4
F1.2692630725739424
s(dp3491
g3
F0.14090679261826772
sg4
F0.10181341658899679
s(dp3492
g3
F3.4700184045665985
sg4
F1.580311140914896
s(dp3493
g3
F0.17530583526481536
sg4
F0.1264213122367922
stp3494
s(I7
I38
tp3495
((dp3496
g3
F-0.010792249107394292
sg4
F1.243581278210042
s(dp3497
g3
F0.13701719079470198
sg4
F0.09923869965913867
s(dp3498
g3
F2.2999323479638925
sg4
F1.422184299726739
s(dp3499
g3
F0.15885552369772293
sg4
F0.10797495829976234
stp3500
s(I13
I79
tp3501
((dp3502
g3
F-0.007640536577280255
sg4
F1.2853379421715183
s(dp3503
g3
F0.14104029564433807
sg4
F0.10362554735615048
s(dp3504
g3
F4.09250210764425
sg4
F1.7903152555391733
s(dp3505
g3
F0.19717334752642568
sg4
F0.14322348789247275
stp3506
s(I11
I35
tp3507
((dp3508
g3
F-0.011296520372722663
sg4
F1.3018291879972925
s(dp3509
g3
F0.1437335483831763
sg4
F0.10629294093754771
s(dp3510
g3
F2.5592380352475717
sg4
F1.5192587619052507
s(dp3511
g3
F0.16902585562250505
sg4
F0.11968090999932945
stp3512
s(I9
I55
tp3513
((dp3514
g3
F0.0034753614615041784
sg4
F1.2834631987690046
s(dp3515
g3
F0.1404494826721116
sg4
F0.09691683169886023
s(dp3516
g3
F3.6318154515600725
sg4
F1.5833825733206703
s(dp3517
g3
F0.1772087893058396
sg4
F0.12227380758346218
stp3518
s(I6
I57
tp3519
((dp3520
g3
F0.010774488234534418
sg4
F1.2677716038195346
s(dp3521
g3
F0.13939906428473192
sg4
F0.1053640889017714
s(dp3522
g3
F3.321073541520146
sg4
F1.538917968827316
s(dp3523
g3
F0.1694909023992608
sg4
F0.11709815424025971
stp3524
s(I12
I36
tp3525
((dp3526
g3
F0.005625667570837267
sg4
F1.3585197433684102
s(dp3527
g3
F0.15199069591107311
sg4
F0.11241840792848146
s(dp3528
g3
F2.725180068112457
sg4
F1.511740566808167
s(dp3529
g3
F0.17057574043971835
sg4
F0.11462427836148859
stp3530
s(I10
I52
tp3531
((dp3532
g3
F-0.0016485651610870233
sg4
F1.296940864462659
s(dp3533
g3
F0.1432135023094856
sg4
F0.09970860770836798
s(dp3534
g3
F3.544853624392264
sg4
F1.5991110814913214
s(dp3535
g3
F0.17784650049912543
sg4
F0.11733072440463554
stp3536
s(I8
I28
tp3537
((dp3538
g3
F0.00793015220784321
sg4
F1.2697102732309626
s(dp3539
g3
F0.14031783815780274
sg4
F0.10005892914938319
s(dp3540
g3
F1.8179916778422003
sg4
F1.3952615617650461
s(dp3541
g3
F0.15716362482401003
sg4
F0.11287860423932483
stp3542
s(I7
I60
tp3543
((dp3544
g3
F0.007091298055500239
sg4
F1.303135978147444
s(dp3545
g3
F0.14540660659317461
sg4
F0.10690527103610314
s(dp3546
g3
F3.672521599067906
sg4
F1.637759493482496
s(dp3547
g3
F0.18208175187319897
sg4
F0.13493704273330975
stp3548
s(I13
I41
tp3549
((dp3550
g3
F0.005646063146037772
sg4
F1.3521572721813437
s(dp3551
g3
F0.14830584538885877
sg4
F0.10983713104134141
s(dp3552
g3
F3.1061843511333453
sg4
F1.5856350253172806
s(dp3553
g3
F0.17753417284524486
sg4
F0.11950117597923215
stp3554
s(I11
I57
tp3555
((dp3556
g3
F0.001863615677354158
sg4
F1.3365840220068153
s(dp3557
g3
F0.14726414084705175
sg4
F0.10377820725969722
s(dp3558
g3
F3.7834356872075396
sg4
F1.6378426423359906
s(dp3559
g3
F0.18317571845459213
sg4
F0.13925924258421507
stp3560
s(I9
I25
tp3561
((dp3562
g3
F0.019221686731259124
sg4
F1.2723439191596484
s(dp3563
g3
F0.14024894142822614
sg4
F0.100075918039642
s(dp3564
g3
F1.7264763519922988
sg4
F1.4199449801051798
s(dp3565
g3
F0.15985893353894487
sg4
F0.11734161211998295
stp3566
s(I6
I83
tp3567
((dp3568
g3
F-0.0059000267103365145
sg4
F1.2219247937653073
s(dp3569
g3
F0.13446312000349703
sg4
F0.09653472476404557
s(dp3570
g3
F3.8511636680780015
sg4
F1.9057507445292587
s(dp3571
g3
F0.21165606514106416
sg4
F0.15117188369217927
stp3572
s(I12
I2
tp3573
((dp3574
g3
F0.018242815314991168
sg4
F1.3672289563190274
s(dp3575
g3
F0.15012397271906186
sg4
F0.10675115464919549
s(dp3576
g3
F0.13013923372906655
sg4
F1.3664655097079255
s(dp3577
g3
F0.15050690357295604
sg4
F0.10799861542323119
stp3578
s(I10
I30
tp3579
((dp3580
g3
F-0.007311295355048708
sg4
F1.3052379019868279
s(dp3581
g3
F0.1443145444697182
sg4
F0.09939513640764663
s(dp3582
g3
F2.1818703093460234
sg4
F1.408896047118161
s(dp3583
g3
F0.15593517694608705
sg4
F0.10449077928145922
stp3584
s(I13
I3
tp3585
((dp3586
g3
F-0.0008665973097070623
sg4
F1.3529597884062716
s(dp3587
g3
F0.14974218963978958
sg4
F0.1077852743311275
s(dp3588
g3
F0.25473604219728996
sg4
F1.3745661289731732
s(dp3589
g3
F0.1519663965107686
sg4
F0.10854709081696223
stp3590
s(I11
I31
tp3591
((dp3592
g3
F-0.022304041762488125
sg4
F1.3034080751308799
s(dp3593
g3
F0.14349553749342375
sg4
F0.10166980648260104
s(dp3594
g3
F2.315584247950407
sg4
F1.4584850172043184
s(dp3595
g3
F0.16300239696341712
sg4
F0.11376198781169988
stp3596
s(I7
I77
tp3597
((dp3598
g3
F0.03187042641274962
sg4
F1.2287249410191312
s(dp3599
g3
F0.13510172831138523
sg4
F0.09214683980194938
s(dp3600
g3
F4.09716143533916
sg4
F1.784482242410999
s(dp3601
g3
F0.1976326996519293
sg4
F0.1436588645223189
stp3602
s(I12
I24
tp3603
((dp3604
g3
F0.0009025725599527412
sg4
F1.3487696570481975
s(dp3605
g3
F0.14814274055326537
sg4
F0.10636032107393378
s(dp3606
g3
F1.8093479597588864
sg4
F1.4497756895614604
s(dp3607
g3
F0.16100653786652996
sg4
F0.11261838877099772
stp3608
s(I8
I72
tp3609
((dp3610
g3
F0.026296380555888454
sg4
F1.2819368425005844
s(dp3611
g3
F0.14342859477053965
sg4
F0.10176583010749685
s(dp3612
g3
F4.134058089761829
sg4
F1.7485982956236206
s(dp3613
g3
F0.19419291843323938
sg4
F0.13972684562508242
stp3614
s(I13
I29
tp3615
((dp3616
g3
F0.022340055294336025
sg4
F1.3647955793055058
s(dp3617
g3
F0.15065714768750277
sg4
F0.10816313953176826
s(dp3618
g3
F2.2354958901016255
sg4
F1.494062236597046
s(dp3619
g3
F0.1647864350167143
sg4
F0.11510996625869407
stp3620
s(I9
I76
tp3621
((dp3622
g3
F-0.0025039864202794915
sg4
F1.2520107383455552
s(dp3623
g3
F0.13798118901286938
sg4
F0.10581462921341411
s(dp3624
g3
F4.148860180094722
sg4
F1.7413641558096717
s(dp3625
g3
F0.19693788390126254
sg4
F0.139546275783491
stp3626
s(I10
I66
tp3627
((dp3628
g3
F0.01775512366383336
sg4
F1.2613836006817836
s(dp3629
g3
F0.13947739834013945
sg4
F0.1001280372946951
s(dp3630
g3
F4.045305237349593
sg4
F1.6759660144321604
s(dp3631
g3
F0.18504087646117684
sg4
F0.13712328158571097
stp3632
s(I6
I4
tp3633
((dp3634
g3
F-0.004179940556841233
sg4
F1.2216097804020487
s(dp3635
g3
F0.13557426608605805
sg4
F0.10047188277156471
s(dp3636
g3
F0.23620057797106142
sg4
F1.1918409765315998
s(dp3637
g3
F0.13226255098257844
sg4
F0.09507342015026965
stp3638
s(I7
I1
tp3639
((dp3640
g3
F-0.0032801324074247518
sg4
F1.253486889450048
s(dp3641
g3
F0.13878654420549508
sg4
F0.09932992275344266
s(dp3642
g3
F0.03945057571444277
sg4
F1.2405987062855406
s(dp3643
g3
F0.13637004251089324
sg4
F0.09780898879966538
stp3644
s(I11
I66
tp3645
((dp3646
g3
F-0.012856722791959596
sg4
F1.2847848324300253
s(dp3647
g3
F0.14181315882598788
sg4
F0.10657724224617549
s(dp3648
g3
F4.071726780717771
sg4
F1.7077431035711907
s(dp3649
g3
F0.1894514420761455
sg4
F0.13529632962543958
stp3650
s(I12
I76
tp3651
((dp3652
g3
F0.017233647631671012
sg4
F1.2468759149531439
s(dp3653
g3
F0.1369623042288879
sg4
F0.09620637872269544
s(dp3654
g3
F4.16769346387733
sg4
F1.76569754961195
s(dp3655
g3
F0.195519832227951
sg4
F0.13658863052669912
stp3656
s(I9
I86
tp3657
((dp3658
g3
F-0.006832665930865067
sg4
F1.151056697749043
s(dp3659
g3
F0.12478339409802508
sg4
F0.08621645106157838
s(dp3660
g3
F3.5493059541929384
sg4
F2.0399253065730667
s(dp3661
g3
F0.2233699023449507
sg4
F0.15931080688543098
stp3662
s(I6
I30
tp3663
((dp3664
g3
F-0.0074595883134243035
sg4
F1.1950230311152275
s(dp3665
g3
F0.13145872369241673
sg4
F0.08823054168878985
s(dp3666
g3
F1.6392387685437737
sg4
F1.3448499054002478
s(dp3667
g3
F0.14963066940893288
sg4
F0.10262755628547893
stp3668
s(I8
I61
tp3669
((dp3670
g3
F0.007454600608727935
sg4
F1.2809397863968734
s(dp3671
g3
F0.14138226212114513
sg4
F0.1030129775443922
s(dp3672
g3
F3.7927831158975174
sg4
F1.592022158739539
s(dp3673
g3
F0.1793541349546781
sg4
F0.13084299865832139
stp3674
s(I7
I31
tp3675
((dp3676
g3
F-0.014493195575024487
sg4
F1.2305885518422106
s(dp3677
g3
F0.13515621285239865
sg4
F0.0985642357494314
s(dp3678
g3
F1.8821920476739384
sg4
F1.4033488494107191
s(dp3679
g3
F0.1575897023548578
sg4
F0.11496729700614639
stp3680
s(I13
I72
tp3681
((dp3682
g3
F-0.01128485773679666
sg4
F1.2988068008637528
s(dp3683
g3
F0.1425998964251135
sg4
F0.09618748984107217
s(dp3684
g3
F4.153415628452584
sg4
F1.7278509633171169
s(dp3685
g3
F0.19148184624662745
sg4
F0.13245922467443583
stp3686
s(I11
I88
tp3687
((dp3688
g3
F0.03391123733013246
sg4
F1.126903024121104
s(dp3689
g3
F0.1221550860215821
sg4
F0.09125141781427848
s(dp3690
g3
F2.923859864607688
sg4
F2.418647999367475
s(dp3691
g3
F0.29071873422783545
sg4
F0.23438384143182178
stp3692
s(I9
I56
tp3693
((dp3694
g3
F0.017376426761112285
sg4
F1.338961935843725
s(dp3695
g3
F0.14883170228269282
sg4
F0.10810547850239871
s(dp3696
g3
F3.664399322977223
sg4
F1.5971514791590637
s(dp3697
g3
F0.1775217656528323
sg4
F0.12252437656673809
stp3698
s(I6
I48
tp3699
((dp3700
g3
F-0.019482957473873075
sg4
F1.2286404232275467
s(dp3701
g3
F0.13609707841980656
sg4
F0.0993819402376791
s(dp3702
g3
F2.7693098155304243
sg4
F1.487956464088676
s(dp3703
g3
F0.1666033428290239
sg4
F0.11932765732495676
stp3704
s(I12
I35
tp3705
((dp3706
g3
F0.01847734836385695
sg4
F1.3394739533509428
s(dp3707
g3
F0.14745309967240194
sg4
F0.11180712877207422
s(dp3708
g3
F2.6128171721431706
sg4
F1.485197230505362
s(dp3709
g3
F0.16606333540799922
sg4
F0.11757346944466651
stp3710
s(I10
I63
tp3711
((dp3712
g3
F-0.005151705024466935
sg4
F1.279722967469394
s(dp3713
g3
F0.14017549366250504
sg4
F0.09652133152560827
s(dp3714
g3
F3.9276582096649078
sg4
F1.7019558723711665
s(dp3715
g3
F0.18977144174089577
sg4
F0.135020066929596
stp3716
s(I8
I3
tp3717
((dp3718
g3
F0.0006566308946087673
sg4
F1.2727671756891055
s(dp3719
g3
F0.1422275753215947
sg4
F0.10235669357376775
s(dp3720
g3
F0.19380757123438652
sg4
F1.2890341334856528
s(dp3721
g3
F0.1435246580497902
sg4
F0.10482709156242753
stp3722
s(I7
I53
tp3723
((dp3724
g3
F0.012365938851404135
sg4
F1.255916503294164
s(dp3725
g3
F0.1386900791103871
sg4
F0.09691676233774715
s(dp3726
g3
F3.2985049092164473
sg4
F1.5448109958674847
s(dp3727
g3
F0.17208134121838725
sg4
F0.12292136929988196
stp3728
s(I13
I34
tp3729
((dp3730
g3
F-0.015604420903508776
sg4
F1.3560151219049124
s(dp3731
g3
F0.14946472818386292
sg4
F0.11486872199229914
s(dp3732
g3
F2.578085360371734
sg4
F1.53183125564493
s(dp3733
g3
F0.17045159216385342
sg4
F0.12201754346618132
stp3734
s(I11
I62
tp3735
((dp3736
g3
F0.006265960973801832
sg4
F1.3079445662105111
s(dp3737
g3
F0.1438168369984788
sg4
F0.10277832992684943
s(dp3738
g3
F3.966591391246732
sg4
F1.7065180397865296
s(dp3739
g3
F0.18914150035873467
sg4
F0.13534194863150328
stp3740
s(I9
I2
tp3741
((dp3742
g3
F0.003857611713952158
sg4
F1.3036867353936334
s(dp3743
g3
F0.1441615789034172
sg4
F0.10285732897988409
s(dp3744
g3
F0.15216578308499362
sg4
F1.2976728824105315
s(dp3745
g3
F0.14381273960027685
sg4
F0.10262574710205907
stp3746
s(I6
I74
tp3747
((dp3748
g3
F0.007326642590668175
sg4
F1.232003436493267
s(dp3749
g3
F0.13732036965425487
sg4
F0.09843015231341623
s(dp3750
g3
F4.032787649857842
sg4
F1.729167099367797
s(dp3751
g3
F0.1944084013039733
sg4
F0.13723055101142
stp3752
s(I12
I57
tp3753
((dp3754
g3
F0.0016763568431099607
sg4
F1.3194756972269208
s(dp3755
g3
F0.14465840270676578
sg4
F0.10629536183723864
s(dp3756
g3
F3.780391632666964
sg4
F1.650762276879781
s(dp3757
g3
F0.18397739802367852
sg4
F0.1368434135918809
stp3758
s(I10
I25
tp3759
((dp3760
g3
F0.0002048007547310604
sg4
F1.3088927422701295
s(dp3761
g3
F0.1441950047440389
sg4
F0.10448011801580492
s(dp3762
g3
F1.8160256903698575
sg4
F1.4260128013936213
s(dp3763
g3
F0.15673348100467432
sg4
F0.10999212338730424
stp3764
s(I13
I60
tp3765
((dp3766
g3
F-0.0073814400947124215
sg4
F1.3263131408524527
s(dp3767
g3
F0.14634133099126234
sg4
F0.1026862773873699
s(dp3768
g3
F3.9675936001751024
sg4
F1.653320008360599
s(dp3769
g3
F0.18764898225163495
sg4
F0.13026647440832428
stp3770
s(I11
I20
tp3771
((dp3772
g3
F0.015198062726934802
sg4
F1.294378644902217
s(dp3773
g3
F0.14296604229922355
sg4
F0.10151099632120175
s(dp3774
g3
F1.4915210604164675
sg4
F1.4246443129415003
s(dp3775
g3
F0.15854300333640836
sg4
F0.11246755935126151
stp3776
s(I7
I74
tp3777
((dp3778
g3
F-0.009375332207348985
sg4
F1.2555770502018904
s(dp3779
g3
F0.13747703093242225
sg4
F0.10078500344845165
s(dp3780
g3
F4.0614211072825555
sg4
F1.7339288450137575
s(dp3781
g3
F0.19334879729579368
sg4
F0.14250845220959707
stp3782
s(I12
I23
tp3783
((dp3784
g3
F-0.007345981804914081
sg4
F1.3135036070495707
s(dp3785
g3
F0.1451334860556993
sg4
F0.10561866014753829
s(dp3786
g3
F1.7710948106141995
sg4
F1.4144963418349683
s(dp3787
g3
F0.15708702977572409
sg4
F0.11002972744815209
stp3788
s(I8
I79
tp3789
((dp3790
g3
F-0.011728115973637543
sg4
F1.2358078120243887
s(dp3791
g3
F0.13552349023995847
sg4
F0.09908812179445725
s(dp3792
g3
F4.087322010250049
sg4
F1.8082611673358617
s(dp3793
g3
F0.20077398168570504
sg4
F0.14795111135029093
stp3794
s(I13
I22
tp3795
((dp3796
g3
F-0.01942337294630847
sg4
F1.3810032132655385
s(dp3797
g3
F0.1525081491028139
sg4
F0.10683078426942128
s(dp3798
g3
F1.7283720146442834
sg4
F1.4632860970039538
s(dp3799
g3
F0.16245533036721826
sg4
F0.1108718769904713
stp3800
s(I10
I77
tp3801
((dp3802
g3
F-0.00680284007905374
sg4
F1.231793286218068
s(dp3803
g3
F0.13472193057038662
sg4
F0.09133918483017467
s(dp3804
g3
F4.138093536498584
sg4
F1.814498264827864
s(dp3805
g3
F0.20008045570684097
sg4
F0.14961195893850443
stp3806
s(I8
I85
tp3807
((dp3808
g3
F-0.010579285586080234
sg4
F1.1938821194578864
s(dp3809
g3
F0.13048858418632625
sg4
F0.09654537911352024
s(dp3810
g3
F3.6557222984812174
sg4
F2.0455705692761716
s(dp3811
g3
F0.22846943754148707
sg4
F0.18603349641016909
stp3812
s(I12
I75
tp3813
((dp3814
g3
F-0.014330416289042747
sg4
F1.3161939586724976
s(dp3815
g3
F0.14601475555961774
sg4
F0.1093279434194363
s(dp3816
g3
F4.163750471351002
sg4
F1.7798768933591487
s(dp3817
g3
F0.196044310467538
sg4
F0.14089653009347192
stp3818
s(I10
I87
tp3819
((dp3820
g3
F0.002969081341936075
sg4
F1.122058347369875
s(dp3821
g3
F0.12158331985030058
sg4
F0.08343428454925772
s(dp3822
g3
F3.3824112933339423
sg4
F2.110681566980315
s(dp3823
g3
F0.23682637119877192
sg4
F0.16063153790454687
stp3824
s(I6
I17
tp3825
((dp3826
g3
F0.00696130751895585
sg4
F1.2195318381155804
s(dp3827
g3
F0.1340034184317721
sg4
F0.0945243472948778
s(dp3828
g3
F0.9374953862884523
sg4
F1.2897462361558447
s(dp3829
g3
F0.14528169863791973
sg4
F0.1009069987356187
stp3830
s(I8
I36
tp3831
((dp3832
g3
F-0.025978882538891246
sg4
F1.2490212037633235
s(dp3833
g3
F0.13681190387986913
sg4
F0.0957453001245645
s(dp3834
g3
F2.292726013086592
sg4
F1.4436809245728512
s(dp3835
g3
F0.15975744530509717
sg4
F0.11139423332437037
stp3836
s(I7
I20
tp3837
((dp3838
g3
F-0.02097322793094558
sg4
F1.244496781855991
s(dp3839
g3
F0.13667416056718962
sg4
F0.09282630892772414
s(dp3840
g3
F1.2091335064701054
sg4
F1.3134421943559103
s(dp3841
g3
F0.14784211988368723
sg4
F0.10061163264175799
stp3842
s(I13
I65
tp3843
((dp3844
g3
F-0.02117650556453443
sg4
F1.2850408193869705
s(dp3845
g3
F0.14080790774257823
sg4
F0.10006833152966921
s(dp3846
g3
F4.079712264620864
sg4
F1.6964073966853335
s(dp3847
g3
F0.18861236654487712
sg4
F0.13244712595856745
stp3848
s(I11
I81
tp3849
((dp3850
g3
F-0.010138673573049761
sg4
F1.2282585909570258
s(dp3851
g3
F0.13434847011444123
sg4
F0.0955124810445569
s(dp3852
g3
F3.963137768976968
sg4
F1.8601041534722125
s(dp3853
g3
F0.2048199316724717
sg4
F0.15019162030647393
stp3854
s(I9
I33
tp3855
((dp3856
g3
F0.03095610651544556
sg4
F1.2730267248503104
s(dp3857
g3
F0.14035917864714348
sg4
F0.10142764400976101
s(dp3858
g3
F2.277700457748874
sg4
F1.4239871280137857
s(dp3859
g3
F0.15932443754746806
sg4
F0.10816403143132036
stp3860
s(I6
I43
tp3861
((dp3862
g3
F-0.015442244420136864
sg4
F1.232547416271892
s(dp3863
g3
F0.1363376951980272
sg4
F0.1004506165410719
s(dp3864
g3
F2.451156788792612
sg4
F1.427521116336969
s(dp3865
g3
F0.16184824506741036
sg4
F0.11423403533292986
stp3866
s(I10
I38
tp3867
((dp3868
g3
F-0.001974660267579975
sg4
F1.3120248875929206
s(dp3869
g3
F0.14382472228219245
sg4
F0.10589621280937989
s(dp3870
g3
F2.6810549927490954
sg4
F1.5175881212491524
s(dp3871
g3
F0.16923193128599134
sg4
F0.12430646473566664
stp3872
s(I8
I10
tp3873
((dp3874
g3
F0.0013017130021450996
sg4
F1.2671360585652762
s(dp3875
g3
F0.1391358385689122
sg4
F0.09786102485698656
s(dp3876
g3
F0.6640073118793046
sg4
F1.3229682201453217
s(dp3877
g3
F0.14725261571302628
sg4
F0.098094695970663
stp3878
s(I7
I50
tp3879
((dp3880
g3
F0.011893981500783024
sg4
F1.2633934178192823
s(dp3881
g3
F0.13937177750152507
sg4
F0.10170050655401786
s(dp3882
g3
F3.0918409671133213
sg4
F1.505951987514213
s(dp3883
g3
F0.16797095057570832
sg4
F0.1178454750304031
stp3884
s(I11
I55
tp3885
((dp3886
g3
F0.023827338982501445
sg4
F1.3054120384040173
s(dp3887
g3
F0.1444898264327681
sg4
F0.10638665335718023
s(dp3888
g3
F3.708257622213189
sg4
F1.6498082325492678
s(dp3889
g3
F0.18541088215959656
sg4
F0.13766445007634331
stp3890
s(I9
I11
tp3891
((dp3892
g3
F-0.0042322419210427675
sg4
F1.3163835314450114
s(dp3893
g3
F0.14580430282045787
sg4
F0.10181871442167134
s(dp3894
g3
F0.7539669912467075
sg4
F1.3500766598596723
s(dp3895
g3
F0.14851479876770302
sg4
F0.1034519870272731
stp3896
s(I6
I77
tp3897
((dp3898
g3
F0.0054247858455331865
sg4
F1.2465442719726698
s(dp3899
g3
F0.1382192801694096
sg4
F0.1010022804679176
s(dp3900
g3
F4.027571207737331
sg4
F1.737381621032517
s(dp3901
g3
F0.19346739225756515
sg4
F0.13591947599507226
stp3902
s(I12
I48
tp3903
((dp3904
g3
F0.013752904133283561
sg4
F1.3004896077837604
s(dp3905
g3
F0.14328305876689718
sg4
F0.10569488776954139
s(dp3906
g3
F3.401800772528948
sg4
F1.645731976159141
s(dp3907
g3
F0.1828581668515259
sg4
F0.1385981789650026
stp3908
s(I10
I0
tp3909
((dp3910
g3
F0.006471026700492155
sg4
F1.3154117416115607
s(dp3911
g3
F0.1450538114835228
sg4
F0.10642778053736301
s(dp3912
g3
F-0.006802195367407005
sg4
F1.3337553451730395
s(dp3913
g3
F0.148042557598769
sg4
F0.10309638862948378
stp3914
s(I8
I16
tp3915
((dp3916
g3
F-0.014380289973366489
sg4
F1.2536832985403223
s(dp3917
g3
F0.13776160496856543
sg4
F0.09447337650620469
s(dp3918
g3
F1.0216896694518742
sg4
F1.3352266153649612
s(dp3919
g3
F0.14958830840867787
sg4
F0.10406616801624657
stp3920
s(I13
I53
tp3921
((dp3922
g3
F0.011322975942226421
sg4
F1.308088214839156
s(dp3923
g3
F0.14427309157419388
sg4
F0.10690875900628893
s(dp3924
g3
F3.6724812253702392
sg4
F1.6358261604145838
s(dp3925
g3
F0.1829815925186855
sg4
F0.12952974139695161
stp3926
s(I11
I13
tp3927
((dp3928
g3
F-0.0007297417125299299
sg4
F1.339086812070383
s(dp3929
g3
F0.14842259079716558
sg4
F0.10386287122341664
s(dp3930
g3
F0.9532079198827437
sg4
F1.3856607966934962
s(dp3931
g3
F0.15396980513315717
sg4
F0.11278569197046429
stp3932
s(I7
I67
tp3933
((dp3934
g3
F-0.007145893372598966
sg4
F1.2661775892330818
s(dp3935
g3
F0.13949438317345575
sg4
F0.10281132793264858
s(dp3936
g3
F3.9753708702715524
sg4
F1.6639442648154248
s(dp3937
g3
F0.18359612554723626
sg4
F0.13005253628372748
stp3938
s(I12
I14
tp3939
((dp3940
g3
F-0.008512336451192537
sg4
F1.3406038693814295
s(dp3941
g3
F0.14825096749638594
sg4
F0.10563918767734104
s(dp3942
g3
F1.0693151717916773
sg4
F1.4010786299634368
s(dp3943
g3
F0.15588504101769707
sg4
F0.11008136022709258
stp3944
s(I13
I15
tp3945
((dp3946
g3
F0.02030693346914747
sg4
F1.3685718386056522
s(dp3947
g3
F0.15086238928573603
sg4
F0.1084320540890712
s(dp3948
g3
F1.1944950354496267
sg4
F1.4061036507735625
s(dp3949
g3
F0.15734710736684443
sg4
F0.11114995955385187
stp3950
s(I7
I89
tp3951
((dp3952
g3
F0.011373931841772933
sg4
F1.086480133018897
s(dp3953
g3
F0.11675655225992826
sg4
F0.08560895184660267
s(dp3954
g3
F1.9804385575710457
sg4
F2.84968735770629
s(dp3955
g3
F0.4920090347299906
sg4
F0.35301391385911285
stp3956
s(I12
I66
tp3957
((dp3958
g3
F0.00040479586219221986
sg4
F1.2904360605099274
s(dp3959
g3
F0.14220002697056378
sg4
F0.10226124366025757
s(dp3960
g3
F4.0849107139347804
sg4
F1.7262130412179708
s(dp3961
g3
F0.19231797558092545
sg4
F0.13967853504293304
stp3962
s(I9
I64
tp3963
((dp3964
g3
F0.005469541168610759
sg4
F1.3062725114765248
s(dp3965
g3
F0.14365991140631407
sg4
F0.10158019279457375
s(dp3966
g3
F4.004456567530163
sg4
F1.661107074241871
s(dp3967
g3
F0.18441215994202853
sg4
F0.12824972589083772
stp3968
s(I6
I8
tp3969
((dp3970
g3
F0.0003789849213637897
sg4
F1.2137090274200542
s(dp3971
g3
F0.1336323082223535
sg4
F0.09649073622716664
s(dp3972
g3
F0.42228337353111733
sg4
F1.2455318690628934
s(dp3973
g3
F0.1382164510380932
sg4
F0.0979616094582102
stp3974
s(I8
I43
tp3975
((dp3976
g3
F-0.009145186367852998
sg4
F1.2839353591719491
s(dp3977
g3
F0.1414954266885024
sg4
F0.10157829319038714
s(dp3978
g3
F2.7889682436568544
sg4
F1.5009473297588305
s(dp3979
g3
F0.16679579568755454
sg4
F0.1231019648602435
stp3980
s(I7
I13
tp3981
((dp3982
g3
F0.015299860875071847
sg4
F1.2314594627545934
s(dp3983
g3
F0.13579188850639534
sg4
F0.09012938336741627
s(dp3984
g3
F0.7733731028393658
sg4
F1.2791523430089544
s(dp3985
g3
F0.14237313004456054
sg4
F0.09718879176504036
stp3986
s(I11
I86
tp3987
((dp3988
g3
F0.027650540013157254
sg4
F1.1848480287108993
s(dp3989
g3
F0.12936004880230795
sg4
F0.0948604778522878
s(dp3990
g3
F3.6022539252551242
sg4
F2.1665498773964824
s(dp3991
g3
F0.24427042216241102
sg4
F0.20326621961465052
stp3992
s(I12
I88
tp3993
((dp3994
g3
F0.004299183081857505
sg4
F1.1362040948113519
s(dp3995
g3
F0.12280172467633316
sg4
F0.08928560891115023
s(dp3996
g3
F2.917158482671705
sg4
F2.3830052024297106
s(dp3997
g3
F0.28551895546911443
sg4
F0.21234450559573914
stp3998
s(I9
I42
tp3999
((dp4000
g3
F-0.0044273765213919125
sg4
F1.3155173607845374
s(dp4001
g3
F0.14528166216777683
sg4
F0.10982621357646094
s(dp4002
g3
F2.8930566148646246
sg4
F1.500354080195026
s(dp4003
g3
F0.16786673141828956
sg4
F0.11409855140977132
stp4004
s(I6
I34
tp4005
((dp4006
g3
F-0.004040604441996498
sg4
F1.2195423607884641
s(dp4007
g3
F0.13550752326934556
sg4
F0.10000117394305075
s(dp4008
g3
F1.8711811935756453
sg4
F1.3755176432759086
s(dp4009
g3
F0.156422871003701
sg4
F0.11060989508812846
stp4010
s(I10
I33
tp4011
((dp4012
g3
F0.02655076409119861
sg4
F1.311606671951775
s(dp4013
g3
F0.1439154323493408
sg4
F0.09750440313132835
s(dp4014
g3
F2.3385533426177707
sg4
F1.475318995117197
s(dp4015
g3
F0.1663451138980161
sg4
F0.11657502253137264
stp4016
s(I8
I49
tp4017
((dp4018
g3
F0.010634550664296416
sg4
F1.2654776821755176
s(dp4019
g3
F0.13965143248301382
sg4
F0.10509772504526849
s(dp4020
g3
F3.1685622983550665
sg4
F1.5404209670346338
s(dp4021
g3
F0.17163731834819962
sg4
F0.12217897296631375
stp4022
s(I7
I43
tp4023
((dp4024
g3
F-0.0006028854624448021
sg4
F1.249100400618563
s(dp4025
g3
F0.13761957261520097
sg4
F0.10052418700754262
s(dp4026
g3
F2.651367141943667
sg4
F1.419072184477828
s(dp4027
g3
F0.15841804667386183
sg4
F0.10457403075823568
stp4028
s(I13
I84
tp4029
((dp4030
g3
F0.0031463083879885723
sg4
F1.2311794684258892
s(dp4031
g3
F0.13498387340401757
sg4
F0.09888709857995104
s(dp4032
g3
F3.7931017917818455
sg4
F1.972693401164187
s(dp4033
g3
F0.21996316989258613
sg4
F0.1608008037369406
stp4034
s(I11
I44
tp4035
((dp4036
g3
F0.012111274802990568
sg4
F1.325906591438339
s(dp4037
g3
F0.14574552001572472
sg4
F0.09832065966575987
s(dp4038
g3
F3.14994232463176
sg4
F1.5706961786165812
s(dp4039
g3
F0.1748808001289026
sg4
F0.12385095477824426
stp4040
s(I9
I12
tp4041
((dp4042
g3
F0.0025821745437775157
sg4
F1.299634257023528
s(dp4043
g3
F0.14357988317427095
sg4
F0.09741733804323449
s(dp4044
g3
F0.841430497309207
sg4
F1.3736890837648528
s(dp4045
g3
F0.1524470847175171
sg4
F0.10031935512589185
stp4046
s(I6
I68
tp4047
((dp4048
g3
F-0.004130788088332227
sg4
F1.2238450085579573
s(dp4049
g3
F0.13494665237611736
sg4
F0.09641770375042247
s(dp4050
g3
F3.852292208051894
sg4
F1.661620735587602
s(dp4051
g3
F0.18439682863001305
sg4
F0.1307177935879139
stp4052
s(I12
I47
tp4053
((dp4054
g3
F0.008688979105395234
sg4
F1.3262899252283162
s(dp4055
g3
F0.1468625686608877
sg4
F0.10869853260886686
s(dp4056
g3
F3.335845827281071
sg4
F1.6142368416385944
s(dp4057
g3
F0.17919388969905325
sg4
F0.12860200006356937
stp4058
s(I10
I11
tp4059
((dp4060
g3
F-0.01015253808362937
sg4
F1.3150696282263885
s(dp4061
g3
F0.14465422164744224
sg4
F0.10236537057139705
s(dp4062
g3
F0.7881149025488032
sg4
F1.388317792542428
s(dp4063
g3
F0.15419707950136763
sg4
F0.11162023519820063
stp4064
s(I8
I23
tp4065
((dp4066
g3
F0.00014387568793994276
sg4
F1.2727656085539703
s(dp4067
g3
F0.14170040452944682
sg4
F0.10169611348015228
s(dp4068
g3
F1.4789446166000522
sg4
F1.3615127770476352
s(dp4069
g3
F0.15112290788153504
sg4
F0.10418561272228322
stp4070
s(I13
I46
tp4071
((dp4072
g3
F0.017910810106816832
sg4
F1.3383400958830867
s(dp4073
g3
F0.14808019909555215
sg4
F0.1096986375892739
s(dp4074
g3
F3.3610801137413926
sg4
F1.635859948269869
s(dp4075
g3
F0.18298216214905194
sg4
F0.13141195765120472
stp4076
s(I11
I2
tp4077
((dp4078
g3
F0.013756978165614608
sg4
F1.3529916652830687
s(dp4079
g3
F0.14942261911557142
sg4
F0.1066571165584187
s(dp4080
g3
F0.16809404422939522
sg4
F1.304066889481075
s(dp4081
g3
F0.14328320752815782
sg4
F0.09994428332306227
stp4082
s(I9
I22
tp4083
((dp4084
g3
F-0.026895879636389952
sg4
F1.3267701568800558
s(dp4085
g3
F0.14639044952322933
sg4
F0.10188370217115394
s(dp4086
g3
F1.4859785714113212
sg4
F1.3959815156215127
s(dp4087
g3
F0.15525026737975112
sg4
F0.11021436346612556
stp4088
s(I12
I5
tp4089
((dp4090
g3
F0.006772900989352237
sg4
F1.3329223873339233
s(dp4091
g3
F0.1468413992824863
sg4
F0.10122556530255489
s(dp4092
g3
F0.4014447121569411
sg4
F1.3913828294350234
s(dp4093
g3
F0.15451084733606613
sg4
F0.11730028628318911
stp4094
s(I10
I21
tp4095
((dp4096
g3
F0.012660184820718179
sg4
F1.3120692197731274
s(dp4097
g3
F0.14490667768318044
sg4
F0.10263032585455767
s(dp4098
g3
F1.511172775066734
sg4
F1.4067281329976506
s(dp4099
g3
F0.15754554386785236
sg4
F0.11006191220069927
stp4100
s(I13
I8
tp4101
((dp4102
g3
F0.018135870124353026
sg4
F1.3298339372526398
s(dp4103
g3
F0.1462214793593689
sg4
F0.09886732407905918
s(dp4104
g3
F0.6237764369193597
sg4
F1.375570763801274
s(dp4105
g3
F0.1515050620220928
sg4
F0.10379939557704565
stp4106
s(I11
I24
tp4107
((dp4108
g3
F-0.014489683882125015
sg4
F1.347672510407461
s(dp4109
g3
F0.14882819515290036
sg4
F0.10655646095867943
s(dp4110
g3
F1.78894788798226
sg4
F1.4018999573955369
s(dp4111
g3
F0.15650237640128672
sg4
F0.11219022838858284
stp4112
s(I7
I86
tp4113
((dp4114
g3
F0.005440948006632418
sg4
F1.1819368586646641
s(dp4115
g3
F0.12953657924025885
sg4
F0.09398327054327726
s(dp4116
g3
F3.5046125908605275
sg4
F2.15027475602035
s(dp4117
g3
F0.24784002999417432
sg4
F0.19760970067067418
stp4118
s(I8
I67
tp4119
((dp4120
g3
F0.009041504155408608
sg4
F1.2400508610596188
s(dp4121
g3
F0.13544940671576033
sg4
F0.0925566134037078
s(dp4122
g3
F3.997164790084728
sg4
F1.6736820329844788
s(dp4123
g3
F0.18446014119047938
sg4
F0.13242074107868218
stp4124
s(I9
I73
tp4125
((dp4126
g3
F-0.009046617180329175
sg4
F1.290057294635608
s(dp4127
g3
F0.14255269895824807
sg4
F0.09885689283035437
s(dp4128
g3
F4.143806232308611
sg4
F1.7800859041734722
s(dp4129
g3
F0.1981479146402627
sg4
F0.14691490370681526
stp4130
s(I10
I89
tp4131
((dp4132
g3
F-0.007941533991775884
sg4
F1.0851250946159534
s(dp4133
g3
F0.11706167346405227
sg4
F0.08034350306914118
s(dp4134
g3
F1.8011340708779917
sg4
F2.9201271938343214
s(dp4135
g3
F0.5363723250223305
sg4
F0.3876534091057131
stp4136
s(I6
I3
tp4137
((dp4138
g3
F0.014366104039583716
sg4
F1.2247130463229094
s(dp4139
g3
F0.1350975488231146
sg4
F0.09505421475954456
s(dp4140
g3
F0.15166927301512212
sg4
F1.2094601589910658
s(dp4141
g3
F0.13327452083617053
sg4
F0.09356208805934862
stp4142
s(I7
I10
tp4143
((dp4144
g3
F-0.007867524691475669
sg4
F1.2499532197330399
s(dp4145
g3
F0.13803748680763367
sg4
F0.10004326339389036
s(dp4146
g3
F0.6204390366027965
sg4
F1.2941151164221574
s(dp4147
g3
F0.1456213407731216
sg4
F0.09800683993429837
stp4148
s(I11
I79
tp4149
((dp4150
g3
F-0.021644477176990917
sg4
F1.2585973690741228
s(dp4151
g3
F0.13885377676609956
sg4
F0.10127317764299515
s(dp4152
g3
F4.118805901389571
sg4
F1.7869209978376372
s(dp4153
g3
F0.19700443351541752
sg4
F0.14247869634448795
stp4154
s(I12
I87
tp4155
((dp4156
g3
F0.006165373266318497
sg4
F1.154301540226577
s(dp4157
g3
F0.12608088947394597
sg4
F0.09175740834616042
s(dp4158
g3
F3.413493695972196
sg4
F2.142570130912872
s(dp4159
g3
F0.23757479184473418
sg4
F0.16072717364290467
stp4160
s(I9
I83
tp4161
((dp4162
g3
F-0.01009859864137197
sg4
F1.247750561749436
s(dp4163
g3
F0.136677766848174
sg4
F0.09793865761482734
s(dp4164
g3
F3.892634301924769
sg4
F1.9078307065427207
s(dp4165
g3
F0.21040121163507797
sg4
F0.15502243081857459
stp4166
s(I6
I37
tp4167
((dp4168
g3
F-0.010210548088045446
sg4
F1.260968056065237
s(dp4169
g3
F0.1390286340015079
sg4
F0.1008897785726266
s(dp4170
g3
F2.090963507371008
sg4
F1.3808946534999391
s(dp4171
g3
F0.1538706975416706
sg4
F0.09662439715021953
stp4172
s(I10
I40
tp4173
((dp4174
g3
F-0.013808010476390908
sg4
F1.2964208988843682
s(dp4175
g3
F0.1436896487389714
sg4
F0.10434187380867832
s(dp4176
g3
F2.7893805549440467
sg4
F1.528590167005932
s(dp4177
g3
F0.17016802434706957
sg4
F0.12543791786572445
stp4178
s(I8
I56
tp4179
((dp4180
g3
F-0.004135806248109608
sg4
F1.3098631530181184
s(dp4181
g3
F0.1445611404774153
sg4
F0.10215489830052094
s(dp4182
g3
F3.5674728760467485
sg4
F1.5789891959784403
s(dp4183
g3
F0.1782838615750566
sg4
F0.12102526891451204
stp4184
s(I7
I32
tp4185
((dp4186
g3
F-0.006810355323575434
sg4
F1.2543596879214887
s(dp4187
g3
F0.13801706287848947
sg4
F0.09910344305923136
s(dp4188
g3
F1.9257585527100582
sg4
F1.369690938878705
s(dp4189
g3
F0.15293834977384035
sg4
F0.10990031868768602
stp4190
s(I13
I77
tp4191
((dp4192
g3
F0.006124902151038114
sg4
F1.254165400899045
s(dp4193
g3
F0.13749507883511752
sg4
F0.09599877025480086
s(dp4194
g3
F4.102832325156908
sg4
F1.8074530169812644
s(dp4195
g3
F0.20085943247325444
sg4
F0.14082370683534617
stp4196
s(I11
I37
tp4197
((dp4198
g3
F-0.0010792040857121599
sg4
F1.316107576561731
s(dp4199
g3
F0.1449926433158693
sg4
F0.10350964237210658
s(dp4200
g3
F2.711964693535018
sg4
F1.5077304018727782
s(dp4201
g3
F0.16813237112406876
sg4
F0.11718121636912382
stp4202
s(I9
I53
tp4203
((dp4204
g3
F0.004715516335056735
sg4
F1.2647687653122333
s(dp4205
g3
F0.13934000463475082
sg4
F0.09565125525477625
s(dp4206
g3
F3.5048173447536284
sg4
F1.6291367174758264
s(dp4207
g3
F0.18159216426663471
sg4
F0.1350929621418384
stp4208
s(I6
I63
tp4209
((dp4210
g3
F0.005509435230876214
sg4
F1.2511673924178652
s(dp4211
g3
F0.13830530909202332
sg4
F0.09525402364588076
s(dp4212
g3
F3.6886552783390343
sg4
F1.621755162095178
s(dp4213
g3
F0.18163484665182983
sg4
F0.12828740791734328
stp4214
s(I12
I38
tp4215
((dp4216
g3
F0.02688384473314631
sg4
F1.3299255611804235
s(dp4217
g3
F0.1462852041773655
sg4
F0.10587785934288296
s(dp4218
g3
F2.801661917654374
sg4
F1.555937429165581
s(dp4219
g3
F0.1735232696190232
sg4
F0.12260934986351413
stp4220
s(I10
I50
tp4221
((dp4222
g3
F2.4866656961330946e-05
sg4
F1.3115025937219267
s(dp4223
g3
F0.1445801618549284
sg4
F0.1057679699780637
s(dp4224
g3
F3.4457148367187695
sg4
F1.6266184898381921
s(dp4225
g3
F0.1817360294722854
sg4
F0.1274758587621445
stp4226
s(I8
I30
tp4227
((dp4228
g3
F-0.012665962720798007
sg4
F1.2549352864258927
s(dp4229
g3
F0.1383340333237636
sg4
F0.09817980882377109
s(dp4230
g3
F1.9577680214688717
sg4
F1.3898773494369672
s(dp4231
g3
F0.15424732742835046
sg4
F0.1026609995904193
stp4232
s(I7
I62
tp4233
((dp4234
g3
F-0.005974598126547215
sg4
F1.2663744946656346
s(dp4235
g3
F0.13914596359132908
sg4
F0.09823842852626852
s(dp4236
g3
F3.783202288009102
sg4
F1.6527534094647558
s(dp4237
g3
F0.18472872369027815
sg4
F0.13154625687750965
stp4238
s(I13
I39
tp4239
((dp4240
g3
F0.004260314232460871
sg4
F1.3423668680766916
s(dp4241
g3
F0.14807206322310085
sg4
F0.1047214013281399
s(dp4242
g3
F2.9424089284158716
sg4
F1.5195202608752898
s(dp4243
g3
F0.16757511437937622
sg4
F0.11944024494019467
stp4244
s(I11
I59
tp4245
((dp4246
g3
F-0.003047729435605384
sg4
F1.2872745393417833
s(dp4247
g3
F0.14181818095836424
sg4
F0.10821967361989193
s(dp4248
g3
F3.8745531308164463
sg4
F1.6503762273181557
s(dp4249
g3
F0.18544960162234192
sg4
F0.13078743681743266
stp4250
s(I9
I31
tp4251
((dp4252
g3
F0.012347308317690375
sg4
F1.2852600145138529
s(dp4253
g3
F0.14230683810593148
sg4
F0.1056198127118545
s(dp4254
g3
F2.1112385573473897
sg4
F1.439838390683719
s(dp4255
g3
F0.15969908739195704
sg4
F0.1084147794067265
stp4256
s(I6
I81
tp4257
((dp4258
g3
F-0.022789817849810712
sg4
F1.239726394049173
s(dp4259
g3
F0.1365598510832891
sg4
F0.09658811885437435
s(dp4260
g3
F3.9292928689968454
sg4
F1.8389631254012628
s(dp4261
g3
F0.2034094461722793
sg4
F0.14858066445956042
stp4262
s(I12
I60
tp4263
((dp4264
g3
F0.005084363582223972
sg4
F1.3032479196456337
s(dp4265
g3
F0.14352497037021006
sg4
F0.1068380260960079
s(dp4266
g3
F3.9470212632172723
sg4
F1.6928895601439478
s(dp4267
g3
F0.19079804183794113
sg4
F0.13446376915187708
stp4268
s(I10
I28
tp4269
((dp4270
g3
F-0.012504729663285863
sg4
F1.2859486322910687
s(dp4271
g3
F0.14133963398505434
sg4
F0.10059658231419044
s(dp4272
g3
F2.0010969553498557
sg4
F1.4075731138682808
s(dp4273
g3
F0.15559139029198832
sg4
F0.10312767022822944
stp4274
s(I13
I1
tp4275
((dp4276
g3
F0.007044184366792328
sg4
F1.3954110205665897
s(dp4277
g3
F0.15373537529199655
sg4
F0.10885840096960364
s(dp4278
g3
F0.0789353425490007
sg4
F1.3607653431869382
s(dp4279
g3
F0.14967361335683071
sg4
F0.10256775688668951
stp4280
s(I11
I17
tp4281
((dp4282
g3
F-0.007193822572296726
sg4
F1.3407720616138297
s(dp4283
g3
F0.14844592414270352
sg4
F0.11132740793541551
s(dp4284
g3
F1.2642462696205587
sg4
F1.4095680912370014
s(dp4285
g3
F0.15660965649519243
sg4
F0.10879575286473175
stp4286
s(I7
I79
tp4287
((dp4288
g3
F0.00722595041122287
sg4
F1.2383176394087427
s(dp4289
g3
F0.13585276324616735
sg4
F0.0911476831497442
s(dp4290
g3
F4.037063440289553
sg4
F1.7659360779308664
s(dp4291
g3
F0.19633916487053016
sg4
F0.14496758361545747
stp4292
s(I12
I26
tp4293
((dp4294
g3
F0.001238676913590142
sg4
F1.3286902185098728
s(dp4295
g3
F0.14643192911455816
sg4
F0.10498866920792982
s(dp4296
g3
F1.9791579552968712
sg4
F1.4453280897572442
s(dp4297
g3
F0.15961107923820506
sg4
F0.11082056062823764
stp4298
s(I8
I74
tp4299
((dp4300
g3
F0.008522672492818684
sg4
F1.2450279235428596
s(dp4301
g3
F0.13641898523791973
sg4
F0.09522192346553948
s(dp4302
g3
F4.083521078950932
sg4
F1.7440061339800068
s(dp4303
g3
F0.1947413351504088
sg4
F0.14403035294555966
stp4304
s(I13
I27
tp4305
((dp4306
g3
F0.01823734616988304
sg4
F1.3428412847247237
s(dp4307
g3
F0.14874069835986714
sg4
F0.10885244749124234
s(dp4308
g3
F2.0932469032570937
sg4
F1.438054235704437
s(dp4309
g3
F0.15950818738299422
sg4
F0.11264437953241069
stp4310
s(I10
I64
tp4311
((dp4312
g3
F0.006952105476534465
sg4
F1.29670791378903
s(dp4313
g3
F0.14317416854565101
sg4
F0.10330783581880743
s(dp4314
g3
F4.023757403144295
sg4
F1.6765042495933522
s(dp4315
g3
F0.18893272610089973
sg4
F0.13050344803791003
stp4316
s(I8
I80
tp4317
((dp4318
g3
F-0.014540773597009005
sg4
F1.2216306955767746
s(dp4319
g3
F0.13389057657535353
sg4
F0.09838663918715262
s(dp4320
g3
F4.037921382788501
sg4
F1.8210128536657997
s(dp4321
g3
F0.20148873981560111
sg4
F0.15254926788656842
stp4322
s.