(dp0
(I7
I3
tp1
((dp2
S'mu'
p3
F0.008965093933778867
sS'sigma'
p4
F0.8364993275142553
s(dp5
g3
F0.08388697845268195
sg4
F0.054353552808589056
s(dp6
g3
F0.14737292361740484
sg4
F0.8341415183170028
s(dp7
g3
F0.08471536720144468
sg4
F0.0514166030737081
stp8
s(I11
I68
tp9
((dp10
g3
F0.012160496439695745
sg4
F0.8994840815156473
s(dp11
g3
F0.09125751323068576
sg4
F0.06260845995708209
s(dp12
g3
F2.5526113777754715
sg4
F1.8618902081509028
s(dp13
g3
F0.2130883938105137
sg4
F0.19446720761819614
stp14
s(I12
I78
tp15
((dp16
g3
F-0.0003213319656127922
sg4
F0.9207183220511443
s(dp17
g3
F0.0945031295413824
sg4
F0.06216936162792819
s(dp18
g3
F2.565732615360733
sg4
F1.926276871599332
s(dp19
g3
F0.22403027081325644
sg4
F0.21346526891499074
stp20
s(I9
I84
tp21
((dp22
g3
F-0.06610368805833933
sg4
F0.8835094399457681
s(dp23
g3
F0.08902909332633563
sg4
F0.05852453021533194
s(dp24
g3
F2.339984303818463
sg4
F2.1138277047894616
s(dp25
g3
F0.260036058442624
sg4
F0.2527671933923854
stp26
s(I6
I28
tp27
((dp28
g3
F0.05690577359952931
sg4
F0.8366753198477624
s(dp29
g3
F0.08340956508582686
sg4
F0.05068267982072716
s(dp30
g3
F0.751774278408788
sg4
F1.720229677044795
s(dp31
g3
F0.25991422027653144
sg4
F0.1957924804514709
stp32
s(I8
I63
tp33
((dp34
g3
F0.024453991516642626
sg4
F0.9002513186683466
s(dp35
g3
F0.09051363165169274
sg4
F0.06130276000463186
s(dp36
g3
F2.3679363959926785
sg4
F1.8259714679933516
s(dp37
g3
F0.21364402362312052
sg4
F0.19869515151840156
stp38
s(I7
I25
tp39
((dp40
g3
F0.007328811357467213
sg4
F0.880163083308458
s(dp41
g3
F0.08962494697048767
sg4
F0.059962747729992494
s(dp42
g3
F0.7548620164209994
sg4
F1.6508626799466515
s(dp43
g3
F0.2479102514682191
sg4
F0.17612727405761996
stp44
s(I13
I70
tp45
((dp46
g3
F-0.0026158242874017024
sg4
F0.9362434963273232
s(dp47
g3
F0.09800903914936271
sg4
F0.06686475686745214
s(dp48
g3
F2.466835820311596
sg4
F1.818523888594297
s(dp49
g3
F0.20876704800600843
sg4
F0.19912355552773942
stp50
s(I9
I62
tp51
((dp52
g3
F0.022352348967588753
sg4
F0.9147968482168792
s(dp53
g3
F0.09231377779678629
sg4
F0.0673334663243188
s(dp54
g3
F2.3524909983177746
sg4
F1.8653663825598414
s(dp55
g3
F0.22301640088963737
sg4
F0.20527388227234544
stp56
s(I6
I54
tp57
((dp58
g3
F0.0034197085873053368
sg4
F0.8798616115092581
s(dp59
g3
F0.08945604751479658
sg4
F0.05851840965068611
s(dp60
g3
F2.0168720767866826
sg4
F1.7759881911985467
s(dp61
g3
F0.2251667102478523
sg4
F0.17104108137992058
stp62
s(I10
I61
tp63
((dp64
g3
F-0.01289652800147778
sg4
F0.8767119230915105
s(dp65
g3
F0.08763898256310387
sg4
F0.05960118965391015
s(dp66
g3
F2.3391151829067196
sg4
F1.8723925571720403
s(dp67
g3
F0.22471905013293902
sg4
F0.19838593220177136
stp68
s(I8
I5
tp69
((dp70
g3
F-0.017933166411081114
sg4
F0.8831502181044465
s(dp71
g3
F0.09018451921392978
sg4
F0.05808237773135938
s(dp72
g3
F0.2557733777975304
sg4
F0.8640667233047463
s(dp73
g3
F0.08942957978039201
sg4
F0.05711469891778187
stp74
s(I7
I55
tp75
((dp76
g3
F-0.021845577418318607
sg4
F0.9109884957138927
s(dp77
g3
F0.09327973190378858
sg4
F0.06355903773720395
s(dp78
g3
F2.0825766665569665
sg4
F1.808588866401849
s(dp79
g3
F0.2202632909843607
sg4
F0.18359139704948346
stp80
s(I13
I32
tp81
((dp82
g3
F0.02317676432434901
sg4
F0.9415315011415438
s(dp83
g3
F0.09721227192492982
sg4
F0.0664426622969656
s(dp84
g3
F1.2347101159518088
sg4
F1.7378977692730915
s(dp85
g3
F0.25408151453802574
sg4
F0.1837322129972495
stp86
s(I11
I48
tp87
((dp88
g3
F0.06330139475689678
sg4
F0.9109643512055019
s(dp89
g3
F0.09217557059354131
sg4
F0.0632606983785064
s(dp90
g3
F1.962342289345277
sg4
F1.7887224078976731
s(dp91
g3
F0.21096951952305631
sg4
F0.17413333692295907
stp92
s(I9
I0
tp93
((dp94
g3
F0.061845825830239454
sg4
F0.865109381269903
s(dp95
g3
F0.08686193802860509
sg4
F0.05876430580559816
s(dp96
g3
F-0.033417701184876414
sg4
F0.8942549346223884
s(dp97
g3
F0.09021549392027117
sg4
F0.05903103832711737
stp98
s(I6
I72
tp99
((dp100
g3
F0.005437873620356637
sg4
F0.9037021710260787
s(dp101
g3
F0.09109502355481863
sg4
F0.06071550788547003
s(dp102
g3
F2.5067433994930375
sg4
F1.8720132953388555
s(dp103
g3
F0.217424445228509
sg4
F0.20183374742534066
stp104
s(I12
I59
tp105
((dp106
g3
F0.039729943905361775
sg4
F0.9142717964135838
s(dp107
g3
F0.09318013150630616
sg4
F0.06523286368279829
s(dp108
g3
F2.2695233558886834
sg4
F1.8290064503736847
s(dp109
g3
F0.21650453101058775
sg4
F0.19519943237766635
stp110
s(I10
I7
tp111
((dp112
g3
F-0.03578909026610666
sg4
F0.903630806763892
s(dp113
g3
F0.09143943651302944
sg4
F0.06220222741209541
s(dp114
g3
F0.3052942565633323
sg4
F0.9150613102623477
s(dp115
g3
F0.09736848203016624
sg4
F0.06361575735082764
stp116
s(I13
I58
tp117
((dp118
g3
F-0.06060495702674129
sg4
F0.9092880816822676
s(dp119
g3
F0.0923480364409518
sg4
F0.06473864848753952
s(dp120
g3
F2.2446459970986474
sg4
F1.8828971600907347
s(dp121
g3
F0.22820953298890578
sg4
F0.20375395097074311
stp122
s(I11
I22
tp123
((dp124
g3
F0.01841743081901548
sg4
F0.936799618126702
s(dp125
g3
F0.09481842829885229
sg4
F0.06472697687063078
s(dp126
g3
F0.5638466017633554
sg4
F1.7181382036195738
s(dp127
g3
F0.30522611958169044
sg4
F0.19629423897029263
stp128
s(I7
I68
tp129
((dp130
g3
F-0.0004954446921239253
sg4
F0.9429656141988931
s(dp131
g3
F0.09765428421470401
sg4
F0.06578139011259637
s(dp132
g3
F2.4644429205132337
sg4
F1.8077380131646834
s(dp133
g3
F0.21088159621869718
sg4
F0.19299022596046078
stp134
s(I12
I17
tp135
((dp136
g3
F-0.05028658570557143
sg4
F0.9082832898018135
s(dp137
g3
F0.09229666197864472
sg4
F0.0622301360224613
s(dp138
g3
F0.8266195023096121
sg4
F1.1101804321351993
s(dp139
g3
F0.18377835259654152
sg4
F0.11645247963718292
stp140
s(I13
I20
tp141
((dp142
g3
F-0.014969678486443927
sg4
F0.93081672524004
s(dp143
g3
F0.09554520971539882
sg4
F0.0678128493832938
s(dp144
g3
F0.6498341725897148
sg4
F1.6592446932415743
s(dp145
g3
F0.2503436339059817
sg4
F0.18990835875739598
stp146
s(I10
I75
tp147
((dp148
g3
F-0.017635491344209164
sg4
F0.9541964087248641
s(dp149
g3
F0.09674473166838687
sg4
F0.06702546893865902
s(dp150
g3
F2.5492578143778735
sg4
F1.8677512570348984
s(dp151
g3
F0.2134939912515459
sg4
F0.19597818682573398
stp152
s(I8
I87
tp153
((dp154
g3
F-0.06488095324252152
sg4
F0.8678691292547656
s(dp155
g3
F0.08745791872877062
sg4
F0.054068314064316614
s(dp156
g3
F1.6268481520373825
sg4
F2.499602472375444
s(dp157
g3
F0.4184469262610282
sg4
F0.34965360589703964
stp158
s(I12
I69
tp159
((dp160
g3
F-0.041674632376498155
sg4
F0.911063633286014
s(dp161
g3
F0.09230753989683371
sg4
F0.06436640576400965
s(dp162
g3
F2.4874535166102043
sg4
F1.826464547020219
s(dp163
g3
F0.2101299555040872
sg4
F0.1906520235215492
stp164
s(I10
I85
tp165
((dp166
g3
F-0.013831550169175255
sg4
F0.8855317823428351
s(dp167
g3
F0.09004506045812988
sg4
F0.05628706692356272
s(dp168
g3
F2.239900140976342
sg4
F2.134769585357249
s(dp169
g3
F0.26856501496062424
sg4
F0.27076597319175055
stp170
s(I6
I23
tp171
((dp172
g3
F-0.03216325463711556
sg4
F0.8278594586489039
s(dp173
g3
F0.08229770724599239
sg4
F0.05048084709610534
s(dp174
g3
F0.3499964074735864
sg4
F1.8219553869625857
s(dp175
g3
F0.36883846585469804
sg4
F0.2905664874411785
stp176
s(I8
I38
tp177
((dp178
g3
F-0.022737471409552623
sg4
F0.8971288484339344
s(dp179
g3
F0.0900627271847732
sg4
F0.06027913074103647
s(dp180
g3
F1.414134072385484
sg4
F1.7602705374708836
s(dp181
g3
F0.25390870230133555
sg4
F0.17884853662356415
stp182
s(I7
I22
tp183
((dp184
g3
F-0.009688243968190458
sg4
F0.8892860169081305
s(dp185
g3
F0.08936703799607953
sg4
F0.058203286110587005
s(dp186
g3
F0.3624812976158016
sg4
F1.8909361978251737
s(dp187
g3
F0.3882900371424277
sg4
F0.29652588814576764
stp188
s(I11
I83
tp189
((dp190
g3
F0.004975494937891067
sg4
F0.9197811149607855
s(dp191
g3
F0.09295619963542429
sg4
F0.06152976367653945
s(dp192
g3
F2.397227776216436
sg4
F2.0587210693004825
s(dp193
g3
F0.24533349260701298
sg4
F0.251114393539261
stp194
s(I9
I39
tp195
((dp196
g3
F-0.014141440007991779
sg4
F0.890023853477546
s(dp197
g3
F0.08909034409448768
sg4
F0.060376278421435836
s(dp198
g3
F1.4967810603781215
sg4
F1.7422375541063615
s(dp199
g3
F0.2407217291207251
sg4
F0.174686099201799
stp200
s(I6
I41
tp201
((dp202
g3
F0.03715573526414562
sg4
F0.8691665237594974
s(dp203
g3
F0.08748184764448508
sg4
F0.056100382734201815
s(dp204
g3
F1.778039775510071
sg4
F1.4663872671783218
s(dp205
g3
F0.15855709823916175
sg4
F0.09734279279547098
stp206
s(I10
I36
tp207
((dp208
g3
F0.02944796465120003
sg4
F0.9153394891121577
s(dp209
g3
F0.09349422838301652
sg4
F0.06404035895772275
s(dp210
g3
F1.4296651858110407
sg4
F1.747139814580774
s(dp211
g3
F0.23969501240169078
sg4
F0.17768070742131525
stp212
s(I8
I12
tp213
((dp214
g3
F-0.02397461654510291
sg4
F0.876396418128376
s(dp215
g3
F0.08854445202195227
sg4
F0.057876870630139854
s(dp216
g3
F0.36115485552634197
sg4
F1.0459919752447564
s(dp217
g3
F0.1283824966254401
sg4
F0.08922535780218327
stp218
s(I7
I44
tp219
((dp220
g3
F-0.03756554165503001
sg4
F0.8822674575417915
s(dp221
g3
F0.0881110548850963
sg4
F0.05661422358915036
s(dp222
g3
F1.624161625928743
sg4
F1.7380665355529417
s(dp223
g3
F0.23138634846308181
sg4
F0.1734183996209525
stp224
s(I13
I89
tp225
((dp226
g3
F0.025427322637707972
sg4
F0.8201728117270827
s(dp227
g3
F0.08164892806427959
sg4
F0.04683620291612256
s(dp228
g3
F-0.33481690147172083
sg4
F3.3073587021057014
s(dp229
g3
F1.1522715894075546
sg4
F0.6795910771103812
stp230
s(I11
I41
tp231
((dp232
g3
F-0.04514149502644682
sg4
F0.8909286874515447
s(dp233
g3
F0.09043695830792542
sg4
F0.06102130484563839
s(dp234
g3
F1.6100091298558952
sg4
F1.8304998932680498
s(dp235
g3
F0.2551947844210707
sg4
F0.1997713873531256
stp236
s(I9
I9
tp237
((dp238
g3
F0.0012587538065611525
sg4
F0.9024150561415198
s(dp239
g3
F0.09258437685422855
sg4
F0.06282224895490068
s(dp240
g3
F0.3776594063275913
sg4
F0.96018992828285
s(dp241
g3
F0.10897098231013425
sg4
F0.07425838359459302
stp242
s(I6
I67
tp243
((dp244
g3
F0.002947966673098712
sg4
F0.871306096397183
s(dp245
g3
F0.0875196580455358
sg4
F0.059833322554872004
s(dp246
g3
F2.439670490548522
sg4
F1.8075361013672486
s(dp247
g3
F0.21055029390829416
sg4
F0.1959915679694637
stp248
s(I12
I50
tp249
((dp250
g3
F-0.015202481220359387
sg4
F0.9472518811949491
s(dp251
g3
F0.0976073299337179
sg4
F0.06618749642733279
s(dp252
g3
F2.1056780361734946
sg4
F1.777821551914275
s(dp253
g3
F0.2076219027558448
sg4
F0.17205173698739618
stp254
s(I10
I14
tp255
((dp256
g3
F-0.0015565821514968992
sg4
F0.8824356108260907
s(dp257
g3
F0.08888294298394944
sg4
F0.06086255525536083
s(dp258
g3
F0.5337980666859807
sg4
F1.1764383949804889
s(dp259
g3
F0.1488964497551195
sg4
F0.15729048937132373
stp260
s(I8
I18
tp261
((dp262
g3
F-0.006900254479658474
sg4
F0.8836813195786615
s(dp263
g3
F0.0892360346693783
sg4
F0.061560761465710656
s(dp264
g3
F0.28654352342823497
sg4
F1.746775204105586
s(dp265
g3
F0.3190797822773809
sg4
F0.2994330147740265
stp266
s(I13
I51
tp267
((dp268
g3
F-0.0385786063253738
sg4
F0.9081868965599538
s(dp269
g3
F0.09208283665922806
sg4
F0.06509482604255401
s(dp270
g3
F2.0662913103939324
sg4
F1.7912731898998593
s(dp271
g3
F0.22121572001141043
sg4
F0.19486716795963543
stp272
s(I11
I15
tp273
((dp274
g3
F-0.008357079773922083
sg4
F0.918745487351246
s(dp275
g3
F0.09462102586271559
sg4
F0.06467126418450037
s(dp276
g3
F0.5470487631780909
sg4
F1.1950665966170129
s(dp277
g3
F0.15889260750500966
sg4
F0.12167528975925102
stp278
s(I9
I19
tp279
((dp280
g3
F0.01868270255132609
sg4
F0.8999793584637681
s(dp281
g3
F0.09053997294731453
sg4
F0.06121181764304645
s(dp282
g3
F0.5480419346102394
sg4
F1.771031480050933
s(dp283
g3
F0.2781581771430145
sg4
F0.2788782764215125
stp284
s(I12
I8
tp285
((dp286
g3
F-0.017517441921243604
sg4
F0.8989251609234739
s(dp287
g3
F0.09100888048983796
sg4
F0.06135617568746493
s(dp288
g3
F0.4443446405307907
sg4
F0.8880289357368489
s(dp289
g3
F0.10119786031774791
sg4
F0.0648302821307013
stp290
s(I13
I13
tp291
((dp292
g3
F0.06835242327011226
sg4
F0.8791487915867259
s(dp293
g3
F0.08784452405860915
sg4
F0.05893037471124446
s(dp294
g3
F0.5429357278232505
sg4
F1.0962441917861536
s(dp295
g3
F0.14054137419510815
sg4
F0.09889740389202561
stp296
s(I9
I70
tp297
((dp298
g3
F-0.013405751385360709
sg4
F0.894244926561476
s(dp299
g3
F0.09162647252264045
sg4
F0.06028792598828081
s(dp300
g3
F2.524745443494493
sg4
F1.8602837439221902
s(dp301
g3
F0.21649105641227018
sg4
F0.1972049061292238
stp302
s(I6
I14
tp303
((dp304
g3
F-0.0613912009415809
sg4
F0.8186885131405042
s(dp305
g3
F0.08109087297244161
sg4
F0.050112840588787066
s(dp306
g3
F0.4660707426021433
sg4
F0.9778393391876209
s(dp307
g3
F0.11829104361527187
sg4
F0.08356606693630925
stp308
s(I8
I45
tp309
((dp310
g3
F0.022857754089494753
sg4
F0.8951037075105395
s(dp311
g3
F0.09049649177535118
sg4
F0.061025194916127234
s(dp312
g3
F1.7863559997024914
sg4
F1.7748990865910081
s(dp313
g3
F0.22927193604550977
sg4
F0.1884993453670465
stp314
s(I7
I15
tp315
((dp316
g3
F0.061376742016975516
sg4
F0.8593354565835489
s(dp317
g3
F0.08635410738246041
sg4
F0.05467240086430131
s(dp318
g3
F0.6011953377363715
sg4
F1.078246622127784
s(dp319
g3
F0.13690917818833104
sg4
F0.1114625080241422
stp320
s(I11
I72
tp321
((dp322
g3
F0.05412613953305989
sg4
F0.9466553750423788
s(dp323
g3
F0.09718628167617671
sg4
F0.06529863319471274
s(dp324
g3
F2.5697754318466917
sg4
F1.8661665598725528
s(dp325
g3
F0.2131791640324372
sg4
F0.19387337270521898
stp326
s(I9
I40
tp327
((dp328
g3
F-0.0442318504402206
sg4
F0.8756443690069993
s(dp329
g3
F0.08872505485136423
sg4
F0.05794502204898749
s(dp330
g3
F1.5426625939895127
sg4
F1.7847285262528347
s(dp331
g3
F0.24352534558287853
sg4
F0.17858923936566273
stp332
s(I6
I32
tp333
((dp334
g3
F-0.021763604121611047
sg4
F0.8665563099916942
s(dp335
g3
F0.08719885106159297
sg4
F0.05675416190997051
s(dp336
g3
F0.9678293431493401
sg4
F1.6010812258522515
s(dp337
g3
F0.23601874493774788
sg4
F0.15323368210333665
stp338
s(I10
I47
tp339
((dp340
g3
F-0.0016196313152091468
sg4
F0.9391948483473906
s(dp341
g3
F0.09543804519665255
sg4
F0.06691331212939461
s(dp342
g3
F1.949776376217144
sg4
F1.8049718984517682
s(dp343
g3
F0.23076694469682835
sg4
F0.18211355110474226
stp344
s(I8
I51
tp345
((dp346
g3
F-0.026096653610063192
sg4
F0.9309902758230317
s(dp347
g3
F0.09518329397587522
sg4
F0.06757311646975372
s(dp348
g3
F2.018041787670334
sg4
F1.7994399410777049
s(dp349
g3
F0.22492631642400118
sg4
F0.1861127625708543
stp350
s(I7
I37
tp351
((dp352
g3
F-0.009471222021164905
sg4
F0.8878374306597195
s(dp353
g3
F0.08896494622870377
sg4
F0.06087373725633066
s(dp354
g3
F1.3160478563721925
sg4
F1.738718911284547
s(dp355
g3
F0.23866308238895018
sg4
F0.16891686695478114
stp356
s(I13
I82
tp357
((dp358
g3
F0.03822689837496829
sg4
F0.9159918485732411
s(dp359
g3
F0.09442868683928085
sg4
F0.0640018433739844
s(dp360
g3
F2.484828300602139
sg4
F2.0271276739038817
s(dp361
g3
F0.24392362891336195
sg4
F0.22982797896468665
stp362
s(I11
I46
tp363
((dp364
g3
F0.010864174048924369
sg4
F0.9412456594854138
s(dp365
g3
F0.09642763619349981
sg4
F0.06735299799136985
s(dp366
g3
F1.852590043153047
sg4
F1.8139625292470987
s(dp367
g3
F0.23006761101314188
sg4
F0.1931656408310165
stp368
s(I9
I50
tp369
((dp370
g3
F-0.004991383884463962
sg4
F0.9365804374617104
s(dp371
g3
F0.09546269004964147
sg4
F0.06587914290917701
s(dp372
g3
F1.9876533420317202
sg4
F1.7620733539992868
s(dp373
g3
F0.2188828997369594
sg4
F0.18315431791405956
stp374
s(I6
I58
tp375
((dp376
g3
F0.042819599046335366
sg4
F0.9198989107031061
s(dp377
g3
F0.09462137778084917
sg4
F0.06385115026953636
s(dp378
g3
F2.169571528095167
sg4
F1.775827225749326
s(dp379
g3
F0.2130541901149392
sg4
F0.18615194073630903
stp380
s(I12
I41
tp381
((dp382
g3
F0.020544298578235587
sg4
F0.9338558726103273
s(dp383
g3
F0.09528783050804412
sg4
F0.06754803582604618
s(dp384
g3
F1.6560672601311115
sg4
F1.8760433289785778
s(dp385
g3
F0.26157932395662997
sg4
F0.20409745268349577
stp386
s(I10
I9
tp387
((dp388
g3
F-0.0378050162357495
sg4
F0.884585508241405
s(dp389
g3
F0.08977624038275
sg4
F0.061097477848983894
s(dp390
g3
F0.4295602180464584
sg4
F0.8960276658295914
s(dp391
g3
F0.10435280660739199
sg4
F0.06210653449033565
stp392
s(I8
I25
tp393
((dp394
g3
F0.02396782056007085
sg4
F0.8272906690255829
s(dp395
g3
F0.08234405517149712
sg4
F0.053212423065302994
s(dp396
g3
F1.1992247449774855
sg4
F1.392608126335972
s(dp397
g3
F0.16006095149664112
sg4
F0.11037287753415703
stp398
s(I13
I44
tp399
((dp400
g3
F0.0014068562583031685
sg4
F0.9333894204878175
s(dp401
g3
F0.09456454991741581
sg4
F0.06451845251295174
s(dp402
g3
F1.771890080537363
sg4
F1.8366099405366842
s(dp403
g3
F0.2480854593732842
sg4
F0.19725823645913043
stp404
s(I11
I4
tp405
((dp406
g3
F-0.01823018233127449
sg4
F0.8963012262164205
s(dp407
g3
F0.08902349754333327
sg4
F0.060791894752491804
s(dp408
g3
F0.18471770131304277
sg4
F0.876188790453108
s(dp409
g3
F0.09105758539049391
sg4
F0.05925684673674286
stp410
s(I9
I20
tp411
((dp412
g3
F0.03188026193269744
sg4
F0.8883954709526548
s(dp413
g3
F0.09027087946574242
sg4
F0.06150719015358491
s(dp414
g3
F0.8343845689716769
sg4
F1.4395078831557069
s(dp415
g3
F0.1896158600451312
sg4
F0.13438229941584579
stp416
s(I12
I7
tp417
((dp418
g3
F0.003483061437061785
sg4
F0.9191782266499693
s(dp419
g3
F0.09292383126867654
sg4
F0.06333471795974316
s(dp420
g3
F0.3365629912997863
sg4
F0.9245129941792516
s(dp421
g3
F0.09925221020817931
sg4
F0.0644708084949101
stp422
s(I10
I19
tp423
((dp424
g3
F0.018879182782792547
sg4
F0.9042711507976235
s(dp425
g3
F0.09112113498090291
sg4
F0.05979061399226465
s(dp426
g3
F0.45650792541722596
sg4
F1.8312963082069618
s(dp427
g3
F0.314687304979387
sg4
F0.33251993480070763
stp428
s(I13
I6
tp429
((dp430
g3
F0.029189907702264373
sg4
F0.8993641374585397
s(dp431
g3
F0.09139732357817792
sg4
F0.06056034772545538
s(dp432
g3
F0.2085784695588988
sg4
F0.9095459758014144
s(dp433
g3
F0.09816790711493817
sg4
F0.06242463746198795
stp434
s(I11
I26
tp435
((dp436
g3
F-0.01865369972498021
sg4
F0.9382438014211036
s(dp437
g3
F0.0969156418914417
sg4
F0.06863039086503331
s(dp438
g3
F0.8444638806277023
sg4
F1.6945235981831739
s(dp439
g3
F0.2684852621686059
sg4
F0.1837248208732838
stp440
s(I7
I80
tp441
((dp442
g3
F0.034054031011063746
sg4
F0.8780616890051232
s(dp443
g3
F0.0894562978533906
sg4
F0.06026035305866001
s(dp444
g3
F2.577792305263664
sg4
F1.931307341528873
s(dp445
g3
F0.2212802620735741
sg4
F0.21225913333731294
stp446
s(I12
I29
tp447
((dp448
g3
F0.02298461970245369
sg4
F0.9312756909924532
s(dp449
g3
F0.09463339043990349
sg4
F0.06538900816368526
s(dp450
g3
F1.0123320582117175
sg4
F1.8550540237324809
s(dp451
g3
F0.28750063424242445
sg4
F0.21916647718917903
stp452
s(I8
I69
tp453
((dp454
g3
F0.007636662721384191
sg4
F0.9080755732083179
s(dp455
g3
F0.0930903749766141
sg4
F0.0642967470100046
s(dp456
g3
F2.506371378401224
sg4
F1.8783357776845422
s(dp457
g3
F0.21631117606579742
sg4
F0.21003098991730995
stp458
s(I9
I79
tp459
((dp460
g3
F0.000397542230771597
sg4
F0.9162953118136412
s(dp461
g3
F0.0936285259969889
sg4
F0.06334154105341533
s(dp462
g3
F2.54571401755004
sg4
F1.895616033008112
s(dp463
g3
F0.21979332463787293
sg4
F0.19623031777116196
stp464
s(I10
I71
tp465
((dp466
g3
F0.004854193410249286
sg4
F0.8865961088820398
s(dp467
g3
F0.08885171399661163
sg4
F0.060276152690425966
s(dp468
g3
F2.5620257690329535
sg4
F1.8644051825764238
s(dp469
g3
F0.2145257432563734
sg4
F0.19981460552759045
stp470
s(I6
I1
tp471
((dp472
g3
F-0.04498328354875736
sg4
F0.8382441299630737
s(dp473
g3
F0.08212854611376674
sg4
F0.05198341687884944
s(dp474
g3
F0.05575547410383219
sg4
F0.8715484066003841
s(dp475
g3
F0.0879611020605417
sg4
F0.055098260316695236
stp476
s(I7
I4
tp477
((dp478
g3
F0.03580727021992991
sg4
F0.8281030869145652
s(dp479
g3
F0.08147566253991262
sg4
F0.049032392480285236
s(dp480
g3
F0.16525842994100204
sg4
F0.8780572815991861
s(dp481
g3
F0.09138152299970104
sg4
F0.058186496364287965
stp482
s(I11
I65
tp483
((dp484
g3
F-0.016183967273716515
sg4
F0.8996155062345755
s(dp485
g3
F0.09156951519036477
sg4
F0.062308607130234395
s(dp486
g3
F2.4027965427540012
sg4
F1.8173297980128635
s(dp487
g3
F0.2130809816906276
sg4
F0.19082663807306466
stp488
s(I12
I81
tp489
((dp490
g3
F-0.05840194940258647
sg4
F0.8949218022411494
s(dp491
g3
F0.09047872876956015
sg4
F0.06156050848427114
s(dp492
g3
F2.504292126482367
sg4
F1.931813155280504
s(dp493
g3
F0.22258940072347588
sg4
F0.21336346608180878
stp494
s(I9
I81
tp495
((dp496
g3
F0.03102664576669345
sg4
F0.8991862294828243
s(dp497
g3
F0.09136299361954514
sg4
F0.05926412854249874
s(dp498
g3
F2.510617865389734
sg4
F1.9449602395332468
s(dp499
g3
F0.22937737285542514
sg4
F0.21800412234531685
stp500
s(I6
I27
tp501
((dp502
g3
F0.04877006969065567
sg4
F0.8572877322932048
s(dp503
g3
F0.0859437717045482
sg4
F0.053916472074920396
s(dp504
g3
F0.7465194922283329
sg4
F1.7367213861469928
s(dp505
g3
F0.2788799787051295
sg4
F0.20978182880528395
stp506
s(I8
I58
tp507
((dp508
g3
F-0.020754126072163537
sg4
F0.9229309355709345
s(dp509
g3
F0.09415899452291387
sg4
F0.06503853027696149
s(dp510
g3
F2.2236943638988107
sg4
F1.8082395474605477
s(dp511
g3
F0.2157001461852679
sg4
F0.19467195784673297
stp512
s(I7
I34
tp513
((dp514
g3
F0.011661070042564337
sg4
F0.879406989164204
s(dp515
g3
F0.08944025224118185
sg4
F0.06047605405863404
s(dp516
g3
F1.0676186630423166
sg4
F1.6711025303659517
s(dp517
g3
F0.2481302050964831
sg4
F0.16947331698294588
stp518
s(I13
I75
tp519
((dp520
g3
F0.015535161451722512
sg4
F0.9727310187041484
s(dp521
g3
F0.09854805006812939
sg4
F0.06866206317667556
s(dp522
g3
F2.584183387186904
sg4
F1.8833504617560304
s(dp523
g3
F0.21536924658724788
sg4
F0.2092605672562109
stp524
s(I11
I39
tp525
((dp526
g3
F-0.007652912178390814
sg4
F0.9482718852059497
s(dp527
g3
F0.09680806193933628
sg4
F0.06827916709544923
s(dp528
g3
F1.5470893243201647
sg4
F1.8177386285400645
s(dp529
g3
F0.2552668049852822
sg4
F0.196325572194471
stp530
s(I9
I59
tp531
((dp532
g3
F0.009728754891587421
sg4
F0.9118398739582658
s(dp533
g3
F0.09230170114403197
sg4
F0.0638937721539709
s(dp534
g3
F2.2977308663816878
sg4
F1.8503405312488606
s(dp535
g3
F0.2211495202579501
sg4
F0.1917285370866889
stp536
s(I6
I61
tp537
((dp538
g3
F0.055469617603269405
sg4
F0.8807003225853407
s(dp539
g3
F0.08841721364708666
sg4
F0.06082711955345571
s(dp540
g3
F2.3223989021985854
sg4
F1.7828339087247187
s(dp541
g3
F0.2084506773567838
sg4
F0.18310262209708383
stp542
s(I12
I32
tp543
((dp544
g3
F-0.0032216493992908157
sg4
F0.9241680437683775
s(dp545
g3
F0.09435181225632727
sg4
F0.06527927765283037
s(dp546
g3
F1.298257651996992
sg4
F1.6808888738361398
s(dp547
g3
F0.2319992134487503
sg4
F0.15782965628765044
stp548
s(I10
I48
tp549
((dp550
g3
F-0.0006903317018613908
sg4
F0.8934716287889456
s(dp551
g3
F0.08931791467650452
sg4
F0.06024536159324273
s(dp552
g3
F1.9628626711218686
sg4
F1.8851678319741016
s(dp553
g3
F0.24174133461169456
sg4
F0.20861664234146915
stp554
s(I8
I0
tp555
((dp556
g3
F0.006468889312980952
sg4
F0.8887378446573584
s(dp557
g3
F0.09042678737516663
sg4
F0.0608915470594919
s(dp558
g3
F-0.022586121661791414
sg4
F0.9037809796871991
s(dp559
g3
F0.0915116255802389
sg4
F0.06153170788681733
stp560
s(I7
I56
tp561
((dp562
g3
F-0.013829494638954887
sg4
F0.8989636629024897
s(dp563
g3
F0.09074691817721586
sg4
F0.06004154281981794
s(dp564
g3
F2.1825398168873793
sg4
F1.842929540886807
s(dp565
g3
F0.22592591915982574
sg4
F0.19260763130752467
stp566
s(I13
I37
tp567
((dp568
g3
F-0.034285338054778514
sg4
F0.9219728431790677
s(dp569
g3
F0.0943425798039792
sg4
F0.06614648696859293
s(dp570
g3
F1.6114003449485699
sg4
F1.7015008567829057
s(dp571
g3
F0.20006730112090088
sg4
F0.14739838188397836
stp572
s(I11
I61
tp573
((dp574
g3
F-0.047594286045264944
sg4
F0.9047890461872683
s(dp575
g3
F0.09150481490698736
sg4
F0.06508349949017567
s(dp576
g3
F2.517874560991701
sg4
F1.6672761106629892
s(dp577
g3
F0.18849483601737327
sg4
F0.1296222315132981
stp578
s(I9
I29
tp579
((dp580
g3
F-0.030927324364439235
sg4
F0.9050113159400525
s(dp581
g3
F0.0915948278251606
sg4
F0.06089788954079267
s(dp582
g3
F0.9875142126191445
sg4
F1.6820836089119875
s(dp583
g3
F0.23469175687066945
sg4
F0.1652827038899155
stp584
s(I6
I87
tp585
((dp586
g3
F0.029778390226859575
sg4
F0.884391953389879
s(dp587
g3
F0.08990601506328566
sg4
F0.05742424467458723
s(dp588
g3
F1.8096761369038283
sg4
F2.333316720429822
s(dp589
g3
F0.33773479125281036
sg4
F0.307183632544733
stp590
s(I12
I62
tp591
((dp592
g3
F-0.03289931365646892
sg4
F0.911115290334719
s(dp593
g3
F0.09233427327210098
sg4
F0.06467607753555077
s(dp594
g3
F2.3813750363268773
sg4
F1.8517113611388805
s(dp595
g3
F0.21868631062940613
sg4
F0.202721976422773
stp596
s(I10
I26
tp597
((dp598
g3
F-0.0035372766562209446
sg4
F0.8701734098188321
s(dp599
g3
F0.0872990548423469
sg4
F0.05702253595178991
s(dp600
g3
F0.7904983181663594
sg4
F1.7326174731030954
s(dp601
g3
F0.28264339153997053
sg4
F0.19821186992546092
stp602
s(I13
I63
tp603
((dp604
g3
F0.06669863787823371
sg4
F0.9248502496265643
s(dp605
g3
F0.09332226118024611
sg4
F0.0642015175794689
s(dp606
g3
F2.5093395427778047
sg4
F1.7198439333064792
s(dp607
g3
F0.1920071099185563
sg4
F0.14953719443631164
stp608
s(I11
I19
tp609
((dp610
g3
F0.005158040500212291
sg4
F0.8632864005848455
s(dp611
g3
F0.08574086112701967
sg4
F0.05809059921312448
s(dp612
g3
F0.5445842126830294
sg4
F1.6834166028925006
s(dp613
g3
F0.2598775981723851
sg4
F0.21550460815757966
stp614
s(I7
I73
tp615
((dp616
g3
F0.010738668533424978
sg4
F0.9056885246521169
s(dp617
g3
F0.09073502222527602
sg4
F0.0635586138011931
s(dp618
g3
F2.5638857096560117
sg4
F1.8859557052687583
s(dp619
g3
F0.21805163917143355
sg4
F0.204951800113367
stp620
s(I12
I20
tp621
((dp622
g3
F0.026859714286202152
sg4
F0.8827365065967225
s(dp623
g3
F0.08855984450858606
sg4
F0.05937865052443164
s(dp624
g3
F0.5570519764722799
sg4
F1.7215721864916014
s(dp625
g3
F0.28164333380570006
sg4
F0.22228788190041937
stp626
s(I8
I76
tp627
((dp628
g3
F0.00682700036740469
sg4
F0.9029679188445259
s(dp629
g3
F0.09233671829571644
sg4
F0.061375141446732395
s(dp630
g3
F2.576144637208684
sg4
F1.8680269684873545
s(dp631
g3
F0.21471273142416836
sg4
F0.20297491088813624
stp632
s(I13
I25
tp633
((dp634
g3
F0.025252110000731687
sg4
F0.8780141550649467
s(dp635
g3
F0.08886258716864393
sg4
F0.06062516217923192
s(dp636
g3
F1.2381454476022054
sg4
F1.426715388300857
s(dp637
g3
F0.1629032982632881
sg4
F0.1068326937515941
stp638
s(I10
I78
tp639
((dp640
g3
F0.006320742601718665
sg4
F0.9633603759727847
s(dp641
g3
F0.10045775713861238
sg4
F0.06729449203464449
s(dp642
g3
F2.5516001125619647
sg4
F1.913447242460438
s(dp643
g3
F0.2209156166821904
sg4
F0.19701698014261526
stp644
s(I8
I82
tp645
((dp646
g3
F0.056331052307588614
sg4
F0.8703690871363075
s(dp647
g3
F0.08848125371460358
sg4
F0.05949833058324172
s(dp648
g3
F2.458717812465431
sg4
F2.0026290053457987
s(dp649
g3
F0.23945481272048208
sg4
F0.2311057284241328
stp650
s(I11
I70
tp651
((dp652
g3
F0.018188793176586948
sg4
F0.8831147834976987
s(dp653
g3
F0.09027238691945183
sg4
F0.05975360491552567
s(dp654
g3
F2.502176945401711
sg4
F1.8685575929964444
s(dp655
g3
F0.21588670574374902
sg4
F0.2033933244547398
stp656
s(I12
I72
tp657
((dp658
g3
F0.03292835295180985
sg4
F0.9235039785159619
s(dp659
g3
F0.09332679132233529
sg4
F0.06508296007966408
s(dp660
g3
F2.557721607556277
sg4
F1.9074614578111202
s(dp661
g3
F0.2173239195730956
sg4
F0.21146716244154262
stp662
s(I6
I18
tp663
((dp664
g3
F-0.015389041502560707
sg4
F0.8560099784315229
s(dp665
g3
F0.08626499661559428
sg4
F0.05549579419080919
s(dp666
g3
F0.3655354120711194
sg4
F1.5729453682785903
s(dp667
g3
F0.22150180041160628
sg4
F0.26778656154832314
stp668
s(I8
I33
tp669
((dp670
g3
F-0.004886138986025745
sg4
F0.875857601493951
s(dp671
g3
F0.08831542248867053
sg4
F0.057962610454772356
s(dp672
g3
F1.1802018208330844
sg4
F1.6619915513384176
s(dp673
g3
F0.25060822925995363
sg4
F0.17468158233689035
stp674
s(I7
I27
tp675
((dp676
g3
F-0.0075441891254725
sg4
F0.8814442853761177
s(dp677
g3
F0.08899662192713709
sg4
F0.060246647762487227
s(dp678
g3
F0.8054317486749254
sg4
F1.6667825820379623
s(dp679
g3
F0.252708980386223
sg4
F0.1799407038221834
stp680
s(I13
I68
tp681
((dp682
g3
F0.025592261415147366
sg4
F0.8951711428492619
s(dp683
g3
F0.0919811819980933
sg4
F0.061452863402494895
s(dp684
g3
F2.480099212607065
sg4
F1.868626728622681
s(dp685
g3
F0.21525732827369914
sg4
F0.20784194067607786
stp686
s(I9
I60
tp687
((dp688
g3
F0.01926148160168939
sg4
F0.9190990445317782
s(dp689
g3
F0.09246151093778254
sg4
F0.06621435769334866
s(dp690
g3
F2.293366729405519
sg4
F1.8236293416958451
s(dp691
g3
F0.2216266991120217
sg4
F0.19870681165038917
stp692
s(I6
I52
tp693
((dp694
g3
F0.035722102949091505
sg4
F0.900833839791021
s(dp695
g3
F0.09057010360105683
sg4
F0.05969970360364263
s(dp696
g3
F1.9624335201495118
sg4
F1.738095078413605
s(dp697
g3
F0.2242957180416003
sg4
F0.16979940763129853
stp698
s(I10
I59
tp699
((dp700
g3
F-0.05199344541210671
sg4
F0.8988920271725217
s(dp701
g3
F0.09143298406872724
sg4
F0.06132109304166489
s(dp702
g3
F2.2750300238130055
sg4
F1.8521795827382506
s(dp703
g3
F0.2177290757448298
sg4
F0.20060276377500363
stp704
s(I8
I7
tp705
((dp706
g3
F0.0259587830559167
sg4
F0.8628765354893444
s(dp707
g3
F0.08607436469077973
sg4
F0.054426567706494344
s(dp708
g3
F0.2949888822237663
sg4
F0.8809302280576594
s(dp709
g3
F0.09392678539842958
sg4
F0.06064313056264259
stp710
s(I7
I49
tp711
((dp712
g3
F-0.030085547898411114
sg4
F0.8829029516546316
s(dp713
g3
F0.08988600478275399
sg4
F0.06071313200842293
s(dp714
g3
F1.8898323782712354
sg4
F1.7713565643617126
s(dp715
g3
F0.23174792746163808
sg4
F0.18026731812754326
stp716
s(I11
I50
tp717
((dp718
g3
F0.01496178642022672
sg4
F0.9461465050421405
s(dp719
g3
F0.09629264319991043
sg4
F0.06792446951157594
s(dp720
g3
F2.0469841085903933
sg4
F1.7706393678783026
s(dp721
g3
F0.21663916535497307
sg4
F0.18553041731205877
stp722
s(I9
I6
tp723
((dp724
g3
F-0.017665455210627568
sg4
F0.8980309290883111
s(dp725
g3
F0.09212832050512709
sg4
F0.06082208597070832
s(dp726
g3
F0.3042370860124688
sg4
F0.903963521860494
s(dp727
g3
F0.09967337957322386
sg4
F0.06199065354804961
stp728
s(I6
I78
tp729
((dp730
g3
F-0.012396708989246608
sg4
F0.9354142091279819
s(dp731
g3
F0.0951760159517464
sg4
F0.06489776944074205
s(dp732
g3
F2.5315710918017658
sg4
F1.8707287553559269
s(dp733
g3
F0.2177481480400949
sg4
F0.20306194163092095
stp734
s(I12
I53
tp735
((dp736
g3
F0.006931573095046106
sg4
F0.9081459908723748
s(dp737
g3
F0.09244001103787486
sg4
F0.0627180294346052
s(dp738
g3
F2.1493980370644703
sg4
F1.8250878200568972
s(dp739
g3
F0.22218760269154436
sg4
F0.19395740114746174
stp740
s(I10
I5
tp741
((dp742
g3
F0.024258351190164174
sg4
F0.8712740557534343
s(dp743
g3
F0.08798888174036151
sg4
F0.057544248713074675
s(dp744
g3
F0.27843765719973956
sg4
F0.9187645166496711
s(dp745
g3
F0.09823408735207151
sg4
F0.06512846914201104
stp746
s(I13
I56
tp747
((dp748
g3
F0.053148715782805
sg4
F0.9277257583130176
s(dp749
g3
F0.09419081509341837
sg4
F0.06652531425376695
s(dp750
g3
F2.2236723922756507
sg4
F1.8686925289282128
s(dp751
g3
F0.22887144624983025
sg4
F0.19841350255192736
stp752
s(I11
I8
tp753
((dp754
g3
F0.012330674552811338
sg4
F0.877184579700556
s(dp755
g3
F0.08840500114994043
sg4
F0.05866120308388767
s(dp756
g3
F0.40374452356486823
sg4
F0.8716023024122712
s(dp757
g3
F0.09620365765226147
sg4
F0.05918662781172701
stp758
s(I7
I70
tp759
((dp760
g3
F0.013852646692338544
sg4
F0.8753513781926117
s(dp761
g3
F0.08815941836330304
sg4
F0.060628355033218395
s(dp762
g3
F2.5706862074116534
sg4
F1.874465318372648
s(dp763
g3
F0.2164458005444978
sg4
F0.19423675384839678
stp764
s(I12
I19
tp765
((dp766
g3
F-0.03706429140122525
sg4
F0.92112995934462
s(dp767
g3
F0.09370991832741954
sg4
F0.06525737682113125
s(dp768
g3
F0.5990788086865004
sg4
F1.6599160259089618
s(dp769
g3
F0.2447706197796945
sg4
F0.19955602449219878
stp770
s(I13
I18
tp771
((dp772
g3
F0.03953614035869091
sg4
F0.9005040141613909
s(dp773
g3
F0.09156666977917055
sg4
F0.06273661546806397
s(dp774
g3
F0.42248237004668887
sg4
F1.7020369161770865
s(dp775
g3
F0.2779818921720265
sg4
F0.22514399237658167
stp776
s(I10
I73
tp777
((dp778
g3
F-0.0010890838398682767
sg4
F0.9114926450794552
s(dp779
g3
F0.09196871875373608
sg4
F0.06252787664501691
s(dp780
g3
F2.568559742384368
sg4
F1.9214459521618936
s(dp781
g3
F0.2218109065829399
sg4
F0.2038220770751874
stp782
s(I8
I89
tp783
((dp784
g3
F-0.03772020274701171
sg4
F0.8201083810997462
s(dp785
g3
F0.08132736378839894
sg4
F0.04723056115718682
s(dp786
g3
F-0.30127940598681024
sg4
F3.281119257452045
s(dp787
g3
F1.128582906016308
sg4
F0.6616401904405191
stp788
s(I12
I71
tp789
((dp790
g3
F0.02314658358915933
sg4
F0.8849220732808847
s(dp791
g3
F0.08906706809926346
sg4
F0.058866620656474966
s(dp792
g3
F2.5217556714781986
sg4
F1.8861830678677665
s(dp793
g3
F0.21870343180677176
sg4
F0.20973318512505856
stp794
s(I9
I67
tp795
((dp796
g3
F-0.012736294358296263
sg4
F0.9019668036710791
s(dp797
g3
F0.09168541898052118
sg4
F0.06177836365091888
s(dp798
g3
F2.445249066015765
sg4
F1.8162085451827439
s(dp799
g3
F0.21025051853073307
sg4
F0.18175091034680668
stp800
s(I10
I83
tp801
((dp802
g3
F-0.08084067616911061
sg4
F0.8861333078203634
s(dp803
g3
F0.08856045141692936
sg4
F0.05841056193901317
s(dp804
g3
F2.411463906962453
sg4
F2.046927291056538
s(dp805
g3
F0.2486145159013573
sg4
F0.23795904552676983
stp806
s(I6
I21
tp807
((dp808
g3
F0.02437236454429792
sg4
F0.8898031915513154
s(dp809
g3
F0.08993267831304241
sg4
F0.05834429422051629
s(dp810
g3
F0.8938644521483676
sg4
F1.0995642770851832
s(dp811
g3
F0.17906009712474324
sg4
F0.11353377175241403
stp812
s(I8
I40
tp813
((dp814
g3
F0.03997863888578257
sg4
F0.8273140079034886
s(dp815
g3
F0.0828379539287265
sg4
F0.05480665443171301
s(dp816
g3
F1.5399630784754343
sg4
F1.760755908223133
s(dp817
g3
F0.24413261022354082
sg4
F0.1758742710541471
stp818
s(I7
I16
tp819
((dp820
g3
F0.0021329307285120613
sg4
F0.870772378044651
s(dp821
g3
F0.08797100607577824
sg4
F0.055153464542800845
s(dp822
g3
F0.51025732358015
sg4
F1.3172548159975135
s(dp823
g3
F0.17204132150695617
sg4
F0.14357112310133047
stp824
s(I11
I85
tp825
((dp826
g3
F-0.0024813005088897278
sg4
F0.8547037457494306
s(dp827
g3
F0.08529375832253772
sg4
F0.055701637326558806
s(dp828
g3
F2.385972656791388
sg4
F2.012020894716411
s(dp829
g3
F0.2313364171825274
sg4
F0.20184685270101466
stp830
s(I9
I37
tp831
((dp832
g3
F-0.004272805053483042
sg4
F0.900923978557756
s(dp833
g3
F0.09107419279488438
sg4
F0.06540164492047001
s(dp834
g3
F1.4363658389961103
sg4
F1.7280806273826164
s(dp835
g3
F0.22995103231206393
sg4
F0.16396609116570482
stp836
s(I6
I47
tp837
((dp838
g3
F0.00835329377730254
sg4
F0.9104046429708208
s(dp839
g3
F0.09205697247887878
sg4
F0.06132011870901416
s(dp840
g3
F1.7584779020702275
sg4
F1.73555548661593
s(dp841
g3
F0.22573616078097336
sg4
F0.17302198548381242
stp842
s(I10
I34
tp843
((dp844
g3
F-0.015323352237303078
sg4
F0.8938407337094565
s(dp845
g3
F0.09216515756790183
sg4
F0.06176900491348408
s(dp846
g3
F1.4947206937578628
sg4
F1.5645841253723547
s(dp847
g3
F0.17770103255483916
sg4
F0.11727243961008216
stp848
s(I8
I14
tp849
((dp850
g3
F-0.03878949027113676
sg4
F0.8917538550722469
s(dp851
g3
F0.09044931866622474
sg4
F0.06125364772758268
s(dp852
g3
F0.3746831001548654
sg4
F1.1759807681618333
s(dp853
g3
F0.14851450759680362
sg4
F0.11864287058253564
stp854
s(I7
I46
tp855
((dp856
g3
F0.03279608080201801
sg4
F0.902700845289807
s(dp857
g3
F0.09157704412038059
sg4
F0.06133780166470548
s(dp858
g3
F1.7623471390784857
sg4
F1.7552544219952422
s(dp859
g3
F0.23029180036884056
sg4
F0.17974686419644426
stp860
s(I13
I87
tp861
((dp862
g3
F-0.04973220841609827
sg4
F0.8530634031977492
s(dp863
g3
F0.08546532223018571
sg4
F0.054423911326691166
s(dp864
g3
F1.6171555139158822
sg4
F2.5692683255625233
s(dp865
g3
F0.4495919273859492
sg4
F0.38114039948174616
stp866
s(I11
I43
tp867
((dp868
g3
F-0.0013843890420667249
sg4
F0.929877004269825
s(dp869
g3
F0.09464905949535857
sg4
F0.06272588828565928
s(dp870
g3
F1.717193187001854
sg4
F1.7927203162707925
s(dp871
g3
F0.23670451606441278
sg4
F0.1850930079095715
stp872
s(I9
I15
tp873
((dp874
g3
F0.03386402654040843
sg4
F0.8880538935265683
s(dp875
g3
F0.09014515876594076
sg4
F0.06037121207772511
s(dp876
g3
F0.4849385294622941
sg4
F1.2035338959414803
s(dp877
g3
F0.15639598936068677
sg4
F0.11751142247848834
stp878
s(I6
I65
tp879
((dp880
g3
F0.035655377654228104
sg4
F0.8959658694224344
s(dp881
g3
F0.09089859997954908
sg4
F0.06132988400291234
s(dp882
g3
F2.379650292464006
sg4
F1.8223519711127198
s(dp883
g3
F0.21493993050070603
sg4
F0.19015856844195278
stp884
s(I12
I44
tp885
((dp886
g3
F-0.020270087610588572
sg4
F0.941788234897559
s(dp887
g3
F0.09507934068946489
sg4
F0.06689761221435353
s(dp888
g3
F1.8286907887897046
sg4
F1.8287293323177274
s(dp889
g3
F0.23609891281255857
sg4
F0.1904928642051089
stp890
s(I10
I12
tp891
((dp892
g3
F0.00771718339212768
sg4
F0.89979287240449
s(dp893
g3
F0.09078784553892538
sg4
F0.06063939298600751
s(dp894
g3
F0.4166333196442975
sg4
F1.1104941924956164
s(dp895
g3
F0.1369171510143169
sg4
F0.1090565095317797
stp896
s(I8
I20
tp897
((dp898
g3
F-0.027465125297918336
sg4
F0.8396154587324982
s(dp899
g3
F0.0834463769508389
sg4
F0.05414774648396681
s(dp900
g3
F0.44352763445639454
sg4
F1.7469820956167819
s(dp901
g3
F0.2960623918505332
sg4
F0.2585145016846293
stp902
s(I13
I49
tp903
((dp904
g3
F-0.019516719335394894
sg4
F0.9339691876765459
s(dp905
g3
F0.09573118089035987
sg4
F0.06617511519886132
s(dp906
g3
F2.0134268372286908
sg4
F1.8609089004048445
s(dp907
g3
F0.23370536816831877
sg4
F0.20201293368688023
stp908
s(I11
I1
tp909
((dp910
g3
F-0.06749071311398391
sg4
F0.8954082580810543
s(dp911
g3
F0.08986523644781502
sg4
F0.06079329992513455
s(dp912
g3
F0.061088952248769424
sg4
F0.8842070237260798
s(dp913
g3
F0.08906351887132852
sg4
F0.060100762435161104
stp914
s(I9
I17
tp915
((dp916
g3
F0.012915993628576539
sg4
F0.8935024601859736
s(dp917
g3
F0.09135593388747165
sg4
F0.059774464096046864
s(dp918
g3
F0.18368919428227892
sg4
F1.8890090348475195
s(dp919
g3
F0.40039604146186536
sg4
F0.40120653459215605
stp920
s(I12
I10
tp921
((dp922
g3
F-0.021710364416424266
sg4
F0.9368528821093655
s(dp923
g3
F0.09556802705699369
sg4
F0.06577410900418867
s(dp924
g3
F0.48740453822659635
sg4
F0.9664831263683078
s(dp925
g3
F0.11394234200282982
sg4
F0.07471707530060256
stp926
s(I10
I22
tp927
((dp928
g3
F0.03954111874620536
sg4
F0.8941063701506904
s(dp929
g3
F0.08964717449707155
sg4
F0.06152339082255032
s(dp930
g3
F0.6552517396181214
sg4
F1.7120098280055904
s(dp931
g3
F0.28353618238826395
sg4
F0.1886889909805155
stp932
s(I13
I11
tp933
((dp934
g3
F0.009253642062709178
sg4
F0.9042235460163922
s(dp935
g3
F0.09280589882387663
sg4
F0.06289164618116977
s(dp936
g3
F0.4092274663912834
sg4
F1.0781136161490432
s(dp937
g3
F0.12856433111223953
sg4
F0.1019866844664718
stp938
s(I7
I85
tp939
((dp940
g3
F-0.035228885029341406
sg4
F0.8757119287149566
s(dp941
g3
F0.08839210186816737
sg4
F0.05713133097512979
s(dp942
g3
F2.615477902894795
sg4
F1.7709547395535117
s(dp943
g3
F0.2040643709135903
sg4
F0.1383563396980202
stp944
s(I8
I64
tp945
((dp946
g3
F0.01639269541844368
sg4
F0.9208196628905029
s(dp947
g3
F0.09317623932255847
sg4
F0.06356703558816462
s(dp948
g3
F2.422542096397475
sg4
F1.8056060481056975
s(dp949
g3
F0.2074581637446573
sg4
F0.1885960762908735
stp950
s(I9
I68
tp951
((dp952
g3
F-0.026342186486705277
sg4
F0.9023190793509449
s(dp953
g3
F0.09176819885007187
sg4
F0.06562451629844107
s(dp954
g3
F2.510026654859823
sg4
F1.8577367531930626
s(dp955
g3
F0.2158801647318631
sg4
F0.20874139667485025
stp956
s(I6
I12
tp957
((dp958
g3
F0.03528870401149087
sg4
F0.8474115564029072
s(dp959
g3
F0.08431157220156255
sg4
F0.05421767069967648
s(dp960
g3
F0.36053504498615263
sg4
F0.982883207121402
s(dp961
g3
F0.10978470051365563
sg4
F0.07957482609045258
stp962
s(I8
I47
tp963
((dp964
g3
F-0.02700711821179924
sg4
F0.9059071014442628
s(dp965
g3
F0.09132082771624128
sg4
F0.06395370975157805
s(dp966
g3
F1.8695963704785865
sg4
F1.8010711495960332
s(dp967
g3
F0.23761014168829586
sg4
F0.1942318973197502
stp968
s(I7
I9
tp969
((dp970
g3
F0.0023241896866592615
sg4
F0.850827612962679
s(dp971
g3
F0.08521036803446097
sg4
F0.05375355143203642
s(dp972
g3
F0.3802919365761712
sg4
F0.8736402200778248
s(dp973
g3
F0.0960106530990632
sg4
F0.057722037120067404
stp974
s(I11
I74
tp975
((dp976
g3
F0.03116688488422037
sg4
F0.9347545830427675
s(dp977
g3
F0.09550173528834932
sg4
F0.06747685341346948
s(dp978
g3
F2.5254186700146732
sg4
F1.8780991779736087
s(dp979
g3
F0.2166776037633018
sg4
F0.2012864388059331
stp980
s(I12
I84
tp981
((dp982
g3
F0.03024234302719897
sg4
F0.88564248196053
s(dp983
g3
F0.08978351491409198
sg4
F0.05955913692746251
s(dp984
g3
F2.384778670862877
sg4
F2.1031332962333975
s(dp985
g3
F0.2559222377977197
sg4
F0.2573395348595865
stp986
s(I9
I46
tp987
((dp988
g3
F0.005258135231840377
sg4
F0.8954362026882765
s(dp989
g3
F0.08997489752394716
sg4
F0.05896336681629044
s(dp990
g3
F1.8118579812591795
sg4
F1.783454100154158
s(dp991
g3
F0.2288818836227351
sg4
F0.17958186383486063
stp992
s(I6
I38
tp993
((dp994
g3
F0.056814376207910744
sg4
F0.8862043248740408
s(dp995
g3
F0.08957684566659985
sg4
F0.05819905312701401
s(dp996
g3
F1.2928609732932501
sg4
F1.6901225170462166
s(dp997
g3
F0.24020753756895674
sg4
F0.16524603995240106
stp998
s(I10
I45
tp999
((dp1000
g3
F-0.017180391093703617
sg4
F0.9331914157941004
s(dp1001
g3
F0.09532989384289553
sg4
F0.06692865265026543
s(dp1002
g3
F1.8867711881518554
sg4
F1.7487776210955828
s(dp1003
g3
F0.2095912901851722
sg4
F0.16354022630442944
stp1004
s(I8
I53
tp1005
((dp1006
g3
F0.022203945926030144
sg4
F0.9191437609349393
s(dp1007
g3
F0.09407165303922133
sg4
F0.06381853068462989
s(dp1008
g3
F2.0661909326061236
sg4
F1.849407480694005
s(dp1009
g3
F0.22976710627807706
sg4
F0.19362237943518157
stp1010
s(I7
I39
tp1011
((dp1012
g3
F-0.0030173511626875316
sg4
F0.9014839498721325
s(dp1013
g3
F0.09023083902055218
sg4
F0.06102537274610642
s(dp1014
g3
F1.390799585841938
sg4
F1.6898441072971835
s(dp1015
g3
F0.24249631777081349
sg4
F0.17442255639541815
stp1016
s(I13
I80
tp1017
((dp1018
g3
F0.05583535543872076
sg4
F0.8541371232613014
s(dp1019
g3
F0.08585211882674099
sg4
F0.05753442220409
s(dp1020
g3
F2.5368720322004066
sg4
F1.9335245062498632
s(dp1021
g3
F0.22387586402595794
sg4
F0.21361912796671634
stp1022
s(I11
I32
tp1023
((dp1024
g3
F-0.025826400749267453
sg4
F0.9050384318510232
s(dp1025
g3
F0.09219642171710957
sg4
F0.062123341537225374
s(dp1026
g3
F1.2897538896449623
sg4
F1.6434065240090452
s(dp1027
g3
F0.2082248832795368
sg4
F0.15063792045188873
stp1028
s(I9
I48
tp1029
((dp1030
g3
F0.000926660772097021
sg4
F0.9392252036317854
s(dp1031
g3
F0.09602012593735093
sg4
F0.06632989601111422
s(dp1032
g3
F2.057910227326526
sg4
F1.7138973410090457
s(dp1033
g3
F0.19305869398106879
sg4
F0.14715116527522165
stp1034
s(I6
I56
tp1035
((dp1036
g3
F0.0010375912073361526
sg4
F0.921023145675083
s(dp1037
g3
F0.09407156313509529
sg4
F0.06448507809935244
s(dp1038
g3
F2.116451726290329
sg4
F1.8256630326317231
s(dp1039
g3
F0.22611475646059165
sg4
F0.18871128387427094
stp1040
s(I12
I43
tp1041
((dp1042
g3
F0.013033403572278335
sg4
F0.9565807159560853
s(dp1043
g3
F0.09772647311941185
sg4
F0.067147463146974
s(dp1044
g3
F1.763237677620514
sg4
F1.8685501780523972
s(dp1045
g3
F0.24938009631978142
sg4
F0.19879675492697368
stp1046
s(I10
I55
tp1047
((dp1048
g3
F0.011311316859940135
sg4
F0.9152561353642741
s(dp1049
g3
F0.09392780674926765
sg4
F0.06443180486597311
s(dp1050
g3
F2.149910949096566
sg4
F1.886251657218825
s(dp1051
g3
F0.2328225321569355
sg4
F0.19590887201673102
stp1052
s(I8
I27
tp1053
((dp1054
g3
F0.06293405127540908
sg4
F0.881599107676862
s(dp1055
g3
F0.08909224350793926
sg4
F0.05782492624534058
s(dp1056
g3
F0.8333758459465352
sg4
F1.8614121282830451
s(dp1057
g3
F0.31357748878596126
sg4
F0.28000890304526305
stp1058
s(I7
I61
tp1059
((dp1060
g3
F0.002855778166326539
sg4
F0.8939292560776149
s(dp1061
g3
F0.09004808137280473
sg4
F0.06137666618221799
s(dp1062
g3
F2.2786761522335945
sg4
F1.8507424425863086
s(dp1063
g3
F0.22557084334682864
sg4
F0.193170803270849
stp1064
s(I13
I42
tp1065
((dp1066
g3
F0.02271806304105284
sg4
F0.9002267254909205
s(dp1067
g3
F0.09029191358646643
sg4
F0.06305474621089546
s(dp1068
g3
F1.7361564616442338
sg4
F1.7946528247168962
s(dp1069
g3
F0.2374744036104035
sg4
F0.19098804778735223
stp1070
s(I11
I6
tp1071
((dp1072
g3
F0.04707239030873245
sg4
F0.8629402336053315
s(dp1073
g3
F0.08611774900927338
sg4
F0.057434088756149304
s(dp1074
g3
F0.2195413509535762
sg4
F0.9014692818905923
s(dp1075
g3
F0.09651472728922472
sg4
F0.06280441175136592
stp1076
s(I9
I26
tp1077
((dp1078
g3
F-0.03854793029534398
sg4
F0.9053972447038472
s(dp1079
g3
F0.09254332559137335
sg4
F0.06367157253924516
s(dp1080
g3
F1.294752194296886
sg4
F1.4262011854276098
s(dp1081
g3
F0.17060739999324315
sg4
F0.11764484359440264
stp1082
s(I6
I82
tp1083
((dp1084
g3
F-0.0025583869499324896
sg4
F0.8884121851948538
s(dp1085
g3
F0.08951864746434318
sg4
F0.05745934146616444
s(dp1086
g3
F2.487586177934351
sg4
F2.031956317254564
s(dp1087
g3
F0.24046621409063929
sg4
F0.2246165129774491
stp1088
s(I12
I1
tp1089
((dp1090
g3
F0.05761202926523268
sg4
F0.9261374291647563
s(dp1091
g3
F0.09312926839480845
sg4
F0.06657461230787076
s(dp1092
g3
F0.04617087259760311
sg4
F0.9291357331658094
s(dp1093
g3
F0.09530395374893369
sg4
F0.06385732405419331
stp1094
s(I10
I17
tp1095
((dp1096
g3
F-0.03980674116636129
sg4
F0.8898007648150456
s(dp1097
g3
F0.09047806205775721
sg4
F0.06051494663089707
s(dp1098
g3
F0.8234265076677207
sg4
F1.273952437952723
s(dp1099
g3
F0.17833647424475652
sg4
F0.159962796567386
stp1100
s(I13
I4
tp1101
((dp1102
g3
F0.0019888987880056774
sg4
F0.896439146161312
s(dp1103
g3
F0.09024894597429334
sg4
F0.05982137677243504
s(dp1104
g3
F0.15811397987320075
sg4
F0.8986990269101213
s(dp1105
g3
F0.09442580032690084
sg4
F0.06257612575120991
stp1106
s(I11
I28
tp1107
((dp1108
g3
F0.0017944340749003196
sg4
F0.8940086011848318
s(dp1109
g3
F0.09000426767854985
sg4
F0.059520298552900086
s(dp1110
g3
F0.9567696580617098
sg4
F1.7382145080268614
s(dp1111
g3
F0.2722897701657533
sg4
F0.18558377749873256
stp1112
s(I7
I82
tp1113
((dp1114
g3
F0.007202060475413274
sg4
F0.9036140992732926
s(dp1115
g3
F0.09271342587639608
sg4
F0.05786806434367603
s(dp1116
g3
F2.4375120735557823
sg4
F1.9940503089431134
s(dp1117
g3
F0.23578348161801
sg4
F0.23698351185423572
stp1118
s(I12
I31
tp1119
((dp1120
g3
F-0.024858182038848264
sg4
F0.930093238609508
s(dp1121
g3
F0.09539596025408148
sg4
F0.06462853502342181
s(dp1122
g3
F1.6594071642472308
sg4
F1.4579923476658667
s(dp1123
g3
F0.16855533803385936
sg4
F0.10548528912280342
stp1124
s(I8
I71
tp1125
((dp1126
g3
F0.0038046899232104803
sg4
F0.9191418163650603
s(dp1127
g3
F0.09391597810425201
sg4
F0.06430740179407546
s(dp1128
g3
F2.4744941192151066
sg4
F1.8847817205445505
s(dp1129
g3
F0.21852136906823127
sg4
F0.20692241967464953
stp1130
s(I13
I30
tp1131
((dp1132
g3
F-0.052945793851274736
sg4
F0.9235704140784771
s(dp1133
g3
F0.0941808214323353
sg4
F0.06406625185519665
s(dp1134
g3
F1.2002191024881785
sg4
F1.7502693368986693
s(dp1135
g3
F0.24219076642934034
sg4
F0.17910784504671673
stp1136
s(I9
I77
tp1137
((dp1138
g3
F-0.03306199382853692
sg4
F0.919588270247558
s(dp1139
g3
F0.09307609388640004
sg4
F0.06551294525058121
s(dp1140
g3
F2.6254741746937507
sg4
F1.9542505982835199
s(dp1141
g3
F0.22810804373217586
sg4
F0.21931047810421622
stp1142
s(I10
I69
tp1143
((dp1144
g3
F0.005815393751167353
sg4
F0.902667887212797
s(dp1145
g3
F0.0917145820347045
sg4
F0.0625181724996508
s(dp1146
g3
F2.5013646197612873
sg4
F1.8735422405439084
s(dp1147
g3
F0.2188549994364528
sg4
F0.20533383954257212
stp1148
s(I6
I7
tp1149
((dp1150
g3
F-0.060854195786657295
sg4
F0.8868081090126159
s(dp1151
g3
F0.0892654453927153
sg4
F0.05739573957712302
s(dp1152
g3
F0.29662795226767047
sg4
F0.8725432102209996
s(dp1153
g3
F0.09111303632551426
sg4
F0.057781823032993396
stp1154
s(I7
I6
tp1155
((dp1156
g3
F-0.07689519871063566
sg4
F0.8574408411057172
s(dp1157
g3
F0.08702186543670343
sg4
F0.0547737336607827
s(dp1158
g3
F0.22993714206423932
sg4
F0.8832294893607926
s(dp1159
g3
F0.09292536236728843
sg4
F0.06126882491238894
stp1160
s(I11
I67
tp1161
((dp1162
g3
F-0.02951990017150463
sg4
F0.9210578289783032
s(dp1163
g3
F0.0939981737297611
sg4
F0.0643162735260926
s(dp1164
g3
F2.4807953678595625
sg4
F1.8189188376665355
s(dp1165
g3
F0.209684970004425
sg4
F0.1978292082135561
stp1166
s(I12
I83
tp1167
((dp1168
g3
F-0.020964928783510306
sg4
F0.9254273621027163
s(dp1169
g3
F0.09444091123248721
sg4
F0.06324521960254392
s(dp1170
g3
F2.416827243555109
sg4
F2.012225427736272
s(dp1171
g3
F0.2380811336004418
sg4
F0.25087478968806054
stp1172
s(I9
I87
tp1173
((dp1174
g3
F-0.02101599187198122
sg4
F0.8436503129412949
s(dp1175
g3
F0.08483654541945773
sg4
F0.05130227336967208
s(dp1176
g3
F1.667380451622368
sg4
F2.4645081257353825
s(dp1177
g3
F0.40910265297347337
sg4
F0.3413205310119021
stp1178
s(I6
I25
tp1179
((dp1180
g3
F-0.051943394622088856
sg4
F0.8482022699963636
s(dp1181
g3
F0.08599071290336979
sg4
F0.054849904924487713
s(dp1182
g3
F0.501506035418299
sg4
F2.078441684351713
s(dp1183
g3
F0.4081569803968079
sg4
F0.42778925738403284
stp1184
s(I8
I60
tp1185
((dp1186
g3
F-0.03194067313745441
sg4
F0.9156883813252522
s(dp1187
g3
F0.09301852756044748
sg4
F0.06280155203112903
s(dp1188
g3
F2.368703792297638
sg4
F1.7298491359788921
s(dp1189
g3
F0.1916228085487941
sg4
F0.15357176831068353
stp1190
s(I7
I28
tp1191
((dp1192
g3
F0.030673300109762103
sg4
F0.8731831296904718
s(dp1193
g3
F0.08782742769308699
sg4
F0.05535194095859497
s(dp1194
g3
F1.3434407598368772
sg4
F1.3698333906866789
s(dp1195
g3
F0.15611568382642638
sg4
F0.09585519393636499
stp1196
s(I13
I73
tp1197
((dp1198
g3
F-0.02020227257745455
sg4
F0.9232751399380021
s(dp1199
g3
F0.09359614294664048
sg4
F0.06512983207636264
s(dp1200
g3
F2.531055239893134
sg4
F1.9126972025658977
s(dp1201
g3
F0.2221138972341361
sg4
F0.20147027667329187
stp1202
s(I11
I89
tp1203
((dp1204
g3
F0.016700427918836525
sg4
F0.75954830390706
s(dp1205
g3
F0.07309413928412395
sg4
F0.03985359027025143
s(dp1206
g3
F-0.19227859844981632
sg4
F3.1196973999139472
s(dp1207
g3
F1.0263621390756972
sg4
F0.6206391863477496
stp1208
s(I9
I57
tp1209
((dp1210
g3
F0.04732356825724904
sg4
F0.9374420903715767
s(dp1211
g3
F0.09599034742667045
sg4
F0.06603318481633497
s(dp1212
g3
F2.273935476292415
sg4
F1.7763545293428011
s(dp1213
g3
F0.21260924329202768
sg4
F0.19479636828752256
stp1214
s(I6
I51
tp1215
((dp1216
g3
F-0.004115370618014813
sg4
F0.8956546651975945
s(dp1217
g3
F0.0910972048143795
sg4
F0.062173635122693915
s(dp1218
g3
F1.940302220019161
sg4
F1.766397712160089
s(dp1219
g3
F0.22519913541749736
sg4
F0.17779425118654124
stp1220
s(I12
I34
tp1221
((dp1222
g3
F0.01789658613459011
sg4
F0.875575672456154
s(dp1223
g3
F0.08939583973477516
sg4
F0.05979555815546056
s(dp1224
g3
F1.3928939056966056
sg4
F1.7302969207881336
s(dp1225
g3
F0.21340510813589297
sg4
F0.1622836381959819
stp1226
s(I10
I62
tp1227
((dp1228
g3
F0.00402227299260316
sg4
F0.9371671567652611
s(dp1229
g3
F0.09498934409804594
sg4
F0.06728102864692531
s(dp1230
g3
F2.353964608075324
sg4
F1.8905937008534979
s(dp1231
g3
F0.22485725599555018
sg4
F0.2104883619241673
stp1232
s(I8
I2
tp1233
((dp1234
g3
F0.029523815351763183
sg4
F0.8846302332327851
s(dp1235
g3
F0.08860389691299259
sg4
F0.059782989548736676
s(dp1236
g3
F0.0479892487934066
sg4
F0.8333698637687669
s(dp1237
g3
F0.08374177451832715
sg4
F0.0526660528931312
stp1238
s(I7
I58
tp1239
((dp1240
g3
F0.06912661478123039
sg4
F0.9023614785317283
s(dp1241
g3
F0.09131413673755662
sg4
F0.06209991570846618
s(dp1242
g3
F2.2256136880828516
sg4
F1.8153091913983537
s(dp1243
g3
F0.2173870304065848
sg4
F0.1874802229968232
stp1244
s(I13
I35
tp1245
((dp1246
g3
F0.008496992178983254
sg4
F0.9160861024826937
s(dp1247
g3
F0.09327401320713247
sg4
F0.06445905481652614
s(dp1248
g3
F1.4091900516661573
sg4
F1.777240304968696
s(dp1249
g3
F0.2580723891918877
sg4
F0.1900520850449272
stp1250
s(I11
I63
tp1251
((dp1252
g3
F0.02478324967340595
sg4
F0.9314012328875607
s(dp1253
g3
F0.09535414225757544
sg4
F0.06672218500227522
s(dp1254
g3
F2.372381766452908
sg4
F1.8798818870824359
s(dp1255
g3
F0.21801111304566212
sg4
F0.20637233249993725
stp1256
s(I9
I3
tp1257
((dp1258
g3
F0.0301787430515148
sg4
F0.8305046670280722
s(dp1259
g3
F0.08316290454602071
sg4
F0.05468788452601153
s(dp1260
g3
F0.17735847248364855
sg4
F0.8594276218603193
s(dp1261
g3
F0.0871534822380865
sg4
F0.05631030290233463
stp1262
s(I6
I85
tp1263
((dp1264
g3
F-0.006141418032275414
sg4
F0.8872103957621683
s(dp1265
g3
F0.0903142377248366
sg4
F0.05836041880912035
s(dp1266
g3
F2.2440854803651833
sg4
F2.1741600265056613
s(dp1267
g3
F0.2842255295557212
sg4
F0.26755621034363
stp1268
s(I12
I56
tp1269
((dp1270
g3
F0.02166692177141316
sg4
F0.9196260538385517
s(dp1271
g3
F0.09281643129429096
sg4
F0.0647488997711339
s(dp1272
g3
F2.2651028223217926
sg4
F1.8566123609184
s(dp1273
g3
F0.2149384364471576
sg4
F0.1865619901007003
stp1274
s(I10
I24
tp1275
((dp1276
g3
F-0.010384275692954303
sg4
F0.9010620021578686
s(dp1277
g3
F0.09099736291093752
sg4
F0.062288569333989685
s(dp1278
g3
F0.8465635985053628
sg4
F1.6438854567039205
s(dp1279
g3
F0.22811936516665077
sg4
F0.17531243036568744
stp1280
s(I13
I61
tp1281
((dp1282
g3
F0.02365622195516326
sg4
F0.9256453737987359
s(dp1283
g3
F0.09455877778694505
sg4
F0.06781841131569954
s(dp1284
g3
F2.3564085219098336
sg4
F1.8290924113522873
s(dp1285
g3
F0.2115083499260979
sg4
F0.1847319800368945
stp1286
s(I11
I21
tp1287
((dp1288
g3
F-0.0036902348122853645
sg4
F0.951953673886196
s(dp1289
g3
F0.09756655125489172
sg4
F0.06774479037689135
s(dp1290
g3
F0.47618779011493206
sg4
F1.7580236421857443
s(dp1291
g3
F0.3315890773346415
sg4
F0.22211408330531213
stp1292
s(I7
I75
tp1293
((dp1294
g3
F-0.024758505019370602
sg4
F0.9482791115398446
s(dp1295
g3
F0.09560926421641314
sg4
F0.0665732165937144
s(dp1296
g3
F2.5665784758870176
sg4
F1.8762024727946063
s(dp1297
g3
F0.21630228462358492
sg4
F0.20127801947978075
stp1298
s(I12
I22
tp1299
((dp1300
g3
F-0.03808433899909125
sg4
F0.8825273023018143
s(dp1301
g3
F0.08777163710677882
sg4
F0.05779289763622514
s(dp1302
g3
F0.5818025121430126
sg4
F1.800002769282793
s(dp1303
g3
F0.3291503756660399
sg4
F0.23058261251480905
stp1304
s(I8
I78
tp1305
((dp1306
g3
F-0.018302469958586864
sg4
F0.9019539576089595
s(dp1307
g3
F0.09068183035141741
sg4
F0.06139235234847512
s(dp1308
g3
F2.556257434514782
sg4
F1.9549378941737623
s(dp1309
g3
F0.2268263234694421
sg4
F0.2144838183174771
stp1310
s(I13
I23
tp1311
((dp1312
g3
F-0.006506559016010827
sg4
F0.9223032747981366
s(dp1313
g3
F0.09392975125946929
sg4
F0.06547618471934802
s(dp1314
g3
F1.1314671733710435
sg4
F1.3780015701965356
s(dp1315
g3
F0.16386691980461832
sg4
F0.10988230620906814
stp1316
s(I10
I76
tp1317
((dp1318
g3
F-0.016219262967929526
sg4
F0.9054555906916175
s(dp1319
g3
F0.09193904055811974
sg4
F0.06349572924252245
s(dp1320
g3
F2.6851955965140517
sg4
F1.818668547039537
s(dp1321
g3
F0.20317009031217337
sg4
F0.16457328396690174
stp1322
s(I8
I84
tp1323
((dp1324
g3
F-0.019191955538960137
sg4
F0.8690367498221069
s(dp1325
g3
F0.08768853588705222
sg4
F0.05674156587295914
s(dp1326
g3
F2.3224733936530675
sg4
F2.1037253505413536
s(dp1327
g3
F0.260429665508469
sg4
F0.2487504026247277
stp1328
s(I12
I74
tp1329
((dp1330
g3
F0.01430318448980672
sg4
F0.9140613591904745
s(dp1331
g3
F0.09325506383977528
sg4
F0.061902953395462534
s(dp1332
g3
F2.590966252511078
sg4
F1.8748748056245252
s(dp1333
g3
F0.21601026341694007
sg4
F0.19655045117439884
stp1334
s(I9
I88
tp1335
((dp1336
g3
F0.03349268073711431
sg4
F0.8463079770911667
s(dp1337
g3
F0.08471387654373408
sg4
F0.05251508125211296
s(dp1338
g3
F1.091250396567113
sg4
F2.7882429028727436
s(dp1339
g3
F0.6122750689118971
sg4
F0.46374537989665465
stp1340
s(I10
I86
tp1341
((dp1342
g3
F-0.001783507340751389
sg4
F0.8559307276971273
s(dp1343
g3
F0.08613921693476106
sg4
F0.05394113791181038
s(dp1344
g3
F1.9752115457030808
sg4
F2.310848688015293
s(dp1345
g3
F0.3344280827211179
sg4
F0.2994861343468149
stp1346
s(I6
I16
tp1347
((dp1348
g3
F0.02236532917379419
sg4
F0.8599794561961089
s(dp1349
g3
F0.08593001065726724
sg4
F0.0572219765707252
s(dp1350
g3
F0.12939197496817179
sg4
F1.6664618857768883
s(dp1351
g3
F0.30071048983147086
sg4
F0.29674774659766434
stp1352
s(I8
I35
tp1353
((dp1354
g3
F-0.042734769766272995
sg4
F0.8667359816470669
s(dp1355
g3
F0.08729582918341672
sg4
F0.056799873140425505
s(dp1356
g3
F1.2849536020979442
sg4
F1.7602157651492119
s(dp1357
g3
F0.24376312115427123
sg4
F0.17925107893147385
stp1358
s(I7
I21
tp1359
((dp1360
g3
F0.023539659658902146
sg4
F0.889982876799392
s(dp1361
g3
F0.09001707842457396
sg4
F0.05763459263942622
s(dp1362
g3
F0.5936403306560138
sg4
F1.6126947367791382
s(dp1363
g3
F0.22093338552737618
sg4
F0.1941790473195154
stp1364
s(I13
I66
tp1365
((dp1366
g3
F-0.01464224399392755
sg4
F0.9237845006753727
s(dp1367
g3
F0.09477996551344464
sg4
F0.06417106394231553
s(dp1368
g3
F2.461015589979297
sg4
F1.871309240345902
s(dp1369
g3
F0.217536204021342
sg4
F0.20160536715624788
stp1370
s(I9
I34
tp1371
((dp1372
g3
F0.021319419404855378
sg4
F0.8814255009742363
s(dp1373
g3
F0.08963518909217127
sg4
F0.06141355622208555
s(dp1374
g3
F1.2169705768547106
sg4
F1.78088807670077
s(dp1375
g3
F0.26887136988595817
sg4
F0.18881447343252744
stp1376
s(I6
I42
tp1377
((dp1378
g3
F0.021081692573072797
sg4
F0.8824758296706292
s(dp1379
g3
F0.08842106945492706
sg4
F0.057506143055209014
s(dp1380
g3
F1.4776461261325249
sg4
F1.7384920553785572
s(dp1381
g3
F0.24596474640727561
sg4
F0.18540092745212422
stp1382
s(I10
I57
tp1383
((dp1384
g3
F-0.05145669701649658
sg4
F0.9365282106269667
s(dp1385
g3
F0.09536638511853962
sg4
F0.06587218316049126
s(dp1386
g3
F2.2869706725861336
sg4
F1.7989712886178744
s(dp1387
g3
F0.21071921952101635
sg4
F0.18406932597667558
stp1388
s(I8
I9
tp1389
((dp1390
g3
F-0.04683338917548918
sg4
F0.8587376784935454
s(dp1391
g3
F0.08671022232760983
sg4
F0.056303206110542514
s(dp1392
g3
F0.3721064407927477
sg4
F0.9039175868893083
s(dp1393
g3
F0.1023088860742315
sg4
F0.06369049359095785
stp1394
s(I7
I51
tp1395
((dp1396
g3
F-0.010028069599908873
sg4
F0.8900798948651856
s(dp1397
g3
F0.09038378570166095
sg4
F0.06212301157833283
s(dp1398
g3
F2.001173012950698
sg4
F1.7504790034171174
s(dp1399
g3
F0.21848490164464396
sg4
F0.17673072625467623
stp1400
s(I11
I52
tp1401
((dp1402
g3
F-0.010962383648875695
sg4
F0.9284625908485826
s(dp1403
g3
F0.094145029121943
sg4
F0.0649985915620172
s(dp1404
g3
F2.093722497346337
sg4
F1.8676210790742462
s(dp1405
g3
F0.23536148527551393
sg4
F0.20109269554240172
stp1406
s(I9
I4
tp1407
((dp1408
g3
F-0.005344962096744399
sg4
F0.8582396197733602
s(dp1409
g3
F0.08481180573614683
sg4
F0.05593722593538436
s(dp1410
g3
F0.14661587613517746
sg4
F0.8524810859599501
s(dp1411
g3
F0.0879854069778998
sg4
F0.05525377719053254
stp1412
s(I6
I76
tp1413
((dp1414
g3
F0.02089449720207437
sg4
F0.8939481589938
s(dp1415
g3
F0.09084586034401398
sg4
F0.06039117963718876
s(dp1416
g3
F2.507670375505727
sg4
F1.9177072232696792
s(dp1417
g3
F0.2215046397292637
sg4
F0.21821033218468278
stp1418
s(I12
I55
tp1419
((dp1420
g3
F0.018757277997919042
sg4
F0.9492775003372411
s(dp1421
g3
F0.0984532904784079
sg4
F0.0697669595628212
s(dp1422
g3
F2.175427372702452
sg4
F1.8499682834628124
s(dp1423
g3
F0.22415527718196349
sg4
F0.18789432380689397
stp1424
s(I10
I3
tp1425
((dp1426
g3
F0.022373838369879717
sg4
F0.8980690356189827
s(dp1427
g3
F0.09272911151631152
sg4
F0.0600598465125764
s(dp1428
g3
F0.20237410796379862
sg4
F0.8634563663656774
s(dp1429
g3
F0.08977799663455077
sg4
F0.055788415640976474
stp1430
s(I13
I54
tp1431
((dp1432
g3
F0.05759270976765829
sg4
F0.8863918572752159
s(dp1433
g3
F0.08966940527184486
sg4
F0.06153677683187925
s(dp1434
g3
F2.1560813573030346
sg4
F1.8642900945343188
s(dp1435
g3
F0.22747326982191973
sg4
F0.2054099427871191
stp1436
s(I11
I10
tp1437
((dp1438
g3
F-0.005511560905958501
sg4
F0.8893574209531534
s(dp1439
g3
F0.08858128103016916
sg4
F0.05883483714881271
s(dp1440
g3
F0.45114014823045423
sg4
F0.9647981736124718
s(dp1441
g3
F0.1129341877229969
sg4
F0.07648350778031587
stp1442
s(I7
I64
tp1443
((dp1444
g3
F-0.011499890876706553
sg4
F0.9049558574002573
s(dp1445
g3
F0.09054138610035345
sg4
F0.06408570098490418
s(dp1446
g3
F2.4367179917213644
sg4
F1.7834619348492187
s(dp1447
g3
F0.19871023479376837
sg4
F0.1630483616039513
stp1448
s(I12
I13
tp1449
((dp1450
g3
F-0.0016560025808314283
sg4
F0.8955232626933728
s(dp1451
g3
F0.09033707991834189
sg4
F0.061129039062757795
s(dp1452
g3
F0.5209931102063774
sg4
F1.1156021596256316
s(dp1453
g3
F0.1457691936848834
sg4
F0.10605329317961598
stp1454
s(I13
I16
tp1455
((dp1456
g3
F-0.02408997675099811
sg4
F0.8846451481261441
s(dp1457
g3
F0.08946328390529273
sg4
F0.059424340872166526
s(dp1458
g3
F0.7870490996626633
sg4
F1.229231253943575
s(dp1459
g3
F0.1772517412384026
sg4
F0.1332238218200743
stp1460
s(I12
I65
tp1461
((dp1462
g3
F0.03128041501041334
sg4
F0.917153452000006
s(dp1463
g3
F0.09425916577834881
sg4
F0.0648823169528383
s(dp1464
g3
F2.418933075730214
sg4
F1.8339256207304608
s(dp1465
g3
F0.2165056468863269
sg4
F0.1943046386097379
stp1466
s(I9
I65
tp1467
((dp1468
g3
F0.02246003317866263
sg4
F0.8904745054742258
s(dp1469
g3
F0.08984685980453494
sg4
F0.06196808536238746
s(dp1470
g3
F2.4421076338055334
sg4
F1.8534936705519256
s(dp1471
g3
F0.21675560319799736
sg4
F0.20018689645375098
stp1472
s(I10
I81
tp1473
((dp1474
g3
F-0.0013740863953186633
sg4
F0.9214773951863618
s(dp1475
g3
F0.09473162400425095
sg4
F0.06469536005590071
s(dp1476
g3
F2.50094685471609
sg4
F2.015859233565675
s(dp1477
g3
F0.23758081111599338
sg4
F0.23202108679444355
stp1478
s(I6
I11
tp1479
((dp1480
g3
F0.04422703087513047
sg4
F0.8353481833732941
s(dp1481
g3
F0.08350960209791641
sg4
F0.05034190275889949
s(dp1482
g3
F0.3291899971959258
sg4
F0.9653495403287089
s(dp1483
g3
F0.11215073501609074
sg4
F0.07124359315357826
stp1484
s(I8
I42
tp1485
((dp1486
g3
F-0.02263246432387822
sg4
F0.903818421361356
s(dp1487
g3
F0.09085400489742285
sg4
F0.062045024269261784
s(dp1488
g3
F1.6607111196848376
sg4
F1.7415615652229197
s(dp1489
g3
F0.23046676975176683
sg4
F0.17341234830383812
stp1490
s(I7
I18
tp1491
((dp1492
g3
F-0.07854513583845235
sg4
F0.8403805781280337
s(dp1493
g3
F0.08402423999225278
sg4
F0.0527500571100758
s(dp1494
g3
F-0.017526573266976486
sg4
F1.966585910584312
s(dp1495
g3
F0.5116156810874226
sg4
F0.46300856528957257
stp1496
s(I11
I87
tp1497
((dp1498
g3
F6.795658875602406e-05
sg4
F0.8487324016305402
s(dp1499
g3
F0.08551545608291405
sg4
F0.05171709547096692
s(dp1500
g3
F1.5142600699275244
sg4
F2.4898493254170995
s(dp1501
g3
F0.43295466592702847
sg4
F0.3801104993462572
stp1502
s(I9
I43
tp1503
((dp1504
g3
F-0.042634941638665325
sg4
F0.9055448275181717
s(dp1505
g3
F0.0914652130430258
sg4
F0.06155300321775453
s(dp1506
g3
F1.6957609921475814
sg4
F1.8359226344974955
s(dp1507
g3
F0.2518542650944502
sg4
F0.1966973654795635
stp1508
s(I6
I45
tp1509
((dp1510
g3
F-0.039617910011885415
sg4
F0.9035404361614892
s(dp1511
g3
F0.09182063922058331
sg4
F0.06275477944258889
s(dp1512
g3
F1.6300711560671175
sg4
F1.7207143757486527
s(dp1513
g3
F0.23547688889309182
sg4
F0.17405310829823417
stp1514
s(I10
I32
tp1515
((dp1516
g3
F0.039501427427548474
sg4
F0.9007292416159113
s(dp1517
g3
F0.09134144214371814
sg4
F0.06214661342987715
s(dp1518
g3
F1.3026090651338351
sg4
F1.6791061293840077
s(dp1519
g3
F0.21531616424255673
sg4
F0.15402462510184
stp1520
s(I8
I48
tp1521
((dp1522
g3
F0.02336275049699643
sg4
F0.8898634211181276
s(dp1523
g3
F0.08884018498553176
sg4
F0.061403604805133405
s(dp1524
g3
F1.91209717251065
sg4
F1.838563433145995
s(dp1525
g3
F0.23858591024140718
sg4
F0.19070953759877685
stp1526
s(I7
I40
tp1527
((dp1528
g3
F-0.009746459632403393
sg4
F0.8434331059333154
s(dp1529
g3
F0.08495946670705706
sg4
F0.05410291396626782
s(dp1530
g3
F1.4391724959044918
sg4
F1.776714364617965
s(dp1531
g3
F0.25283711522557684
sg4
F0.1898163934929733
stp1532
s(I13
I85
tp1533
((dp1534
g3
F-0.030388399557936596
sg4
F0.8682653400459103
s(dp1535
g3
F0.08704420577898875
sg4
F0.05523306760152963
s(dp1536
g3
F2.2349016465432445
sg4
F2.157835054506534
s(dp1537
g3
F0.2751196712748347
sg4
F0.2736478486801397
stp1538
s(I11
I45
tp1539
((dp1540
g3
F-0.013733136498201404
sg4
F0.92859885775817
s(dp1541
g3
F0.09519448696492555
sg4
F0.06516852463366984
s(dp1542
g3
F1.8502642691574351
sg4
F1.7653324511659219
s(dp1543
g3
F0.22633803325661983
sg4
F0.1871244290646047
stp1544
s(I9
I13
tp1545
((dp1546
g3
F-0.001956842649971313
sg4
F0.8966287430026529
s(dp1547
g3
F0.09116566038125079
sg4
F0.06108324935930676
s(dp1548
g3
F0.07829652479493543
sg4
F1.620645325127154
s(dp1549
g3
F0.3124076920065975
sg4
F0.30252171594001964
stp1550
s(I6
I71
tp1551
((dp1552
g3
F0.02334899454261752
sg4
F0.9146276171910216
s(dp1553
g3
F0.09371265935971884
sg4
F0.06227015245358741
s(dp1554
g3
F2.491923083681422
sg4
F1.840320679904845
s(dp1555
g3
F0.2124727461725351
sg4
F0.18359531570174203
stp1556
s(I12
I46
tp1557
((dp1558
g3
F-0.038804215680709464
sg4
F0.9170019875033201
s(dp1559
g3
F0.09266265213082386
sg4
F0.06446760095253423
s(dp1560
g3
F1.873158390153002
sg4
F1.836352932231905
s(dp1561
g3
F0.23367171674536702
sg4
F0.19314092780937397
stp1562
s(I10
I10
tp1563
((dp1564
g3
F0.05524465665146305
sg4
F0.8898039678462075
s(dp1565
g3
F0.08895647142703911
sg4
F0.058607880041713134
s(dp1566
g3
F0.415914240694391
sg4
F0.9181311214229383
s(dp1567
g3
F0.1031776183932207
sg4
F0.06983464126950262
stp1568
s(I8
I22
tp1569
((dp1570
g3
F-0.04231760149741148
sg4
F0.8625772393400728
s(dp1571
g3
F0.08535294300974866
sg4
F0.054995342071793574
s(dp1572
g3
F0.70688017551393
sg4
F1.8949712005708432
s(dp1573
g3
F0.28822104598859455
sg4
F0.3139366676636516
stp1574
s(I13
I47
tp1575
((dp1576
g3
F0.11321977155640406
sg4
F0.9229566694038366
s(dp1577
g3
F0.09364069421245291
sg4
F0.06859265548318172
s(dp1578
g3
F1.913914721187549
sg4
F1.841832478532274
s(dp1579
g3
F0.23912074901392755
sg4
F0.19494172953619215
stp1580
s(I11
I3
tp1581
((dp1582
g3
F0.02906786420620877
sg4
F0.8486573196850075
s(dp1583
g3
F0.08596951333843461
sg4
F0.05638802388245567
s(dp1584
g3
F0.14595580924889395
sg4
F0.8919642977325469
s(dp1585
g3
F0.09209510617432304
sg4
F0.0585923023080151
stp1586
s(I9
I23
tp1587
((dp1588
g3
F-0.04150159480473592
sg4
F0.8909851375252135
s(dp1589
g3
F0.0907468893655663
sg4
F0.059918928194920285
s(dp1590
g3
F0.7444622475469029
sg4
F1.6639539399012357
s(dp1591
g3
F0.24604442063250476
sg4
F0.1806004004316336
stp1592
s(I6
I89
tp1593
((dp1594
g3
F0.030197022525786377
sg4
F0.8082025729946092
s(dp1595
g3
F0.07922741599831418
sg4
F0.0475434402006889
s(dp1596
g3
F0.31805414359617235
sg4
F2.860794792476634
s(dp1597
g3
F0.7477437582183506
sg4
F0.5073984739312491
stp1598
s(I12
I4
tp1599
((dp1600
g3
F0.03270286625958385
sg4
F0.8701342204961466
s(dp1601
g3
F0.08706817775877246
sg4
F0.054757702744172077
s(dp1602
g3
F0.1618234555343394
sg4
F0.8642199851509569
s(dp1603
g3
F0.08837283464764689
sg4
F0.05855453746328515
stp1604
s(I10
I20
tp1605
((dp1606
g3
F0.006648844376811791
sg4
F0.8595927500596655
s(dp1607
g3
F0.08600443153663723
sg4
F0.05695348489874685
s(dp1608
g3
F0.7859817138985075
sg4
F1.5923816771050072
s(dp1609
g3
F0.2013097332013326
sg4
F0.1944979717503451
stp1610
s(I13
I9
tp1611
((dp1612
g3
F-0.02128856990312955
sg4
F0.8719065797898157
s(dp1613
g3
F0.08794596520161235
sg4
F0.05710650473672968
s(dp1614
g3
F0.41915756870651877
sg4
F0.8947935528862598
s(dp1615
g3
F0.09981817250447267
sg4
F0.06521538644727021
stp1616
s(I11
I25
tp1617
((dp1618
g3
F0.010431991243251781
sg4
F0.8827577406473606
s(dp1619
g3
F0.08977560490764125
sg4
F0.06102806332792343
s(dp1620
g3
F0.764265784739032
sg4
F1.723854163631513
s(dp1621
g3
F0.2998448736489243
sg4
F0.1963940938281401
stp1622
s(I7
I87
tp1623
((dp1624
g3
F-0.00039082261552814135
sg4
F0.8008991397167132
s(dp1625
g3
F0.0793950066787884
sg4
F0.04770868313116
s(dp1626
g3
F1.6553720731705068
sg4
F2.6235355847233217
s(dp1627
g3
F0.4658204125145611
sg4
F0.3813506078640736
stp1628
s(I8
I66
tp1629
((dp1630
g3
F0.010997756572244999
sg4
F0.9198540153064356
s(dp1631
g3
F0.09465900974375563
sg4
F0.06495528166980957
s(dp1632
g3
F2.426969012514213
sg4
F1.82675906312652
s(dp1633
g3
F0.20946454347238097
sg4
F0.19212315278365732
stp1634
s(I9
I74
tp1635
((dp1636
g3
F0.018789510321509884
sg4
F0.9091985691857783
s(dp1637
g3
F0.09211828235556496
sg4
F0.06243535186466176
s(dp1638
g3
F2.5733031336865544
sg4
F1.9065730736085926
s(dp1639
g3
F0.21860152376149888
sg4
F0.20388551566771296
stp1640
s(I10
I88
tp1641
((dp1642
g3
F-0.058223154049350634
sg4
F0.8120907807497113
s(dp1643
g3
F0.08060454590580501
sg4
F0.04928797495960846
s(dp1644
g3
F2.2103934181516056
sg4
F1.7799475050919198
s(dp1645
g3
F0.21747783288403522
sg4
F0.14348247271965886
stp1646
s(I6
I2
tp1647
((dp1648
g3
F0.04309789419884513
sg4
F0.8377438164009914
s(dp1649
g3
F0.08349361192718868
sg4
F0.05113925486982235
s(dp1650
g3
F0.056729970078206016
sg4
F0.824834025817961
s(dp1651
g3
F0.08282353399965459
sg4
F0.05179345249959055
stp1652
s(I7
I11
tp1653
((dp1654
g3
F0.014723166677878208
sg4
F0.8836298782062559
s(dp1655
g3
F0.08951725869336125
sg4
F0.05768965319378777
s(dp1656
g3
F0.42152345193862795
sg4
F0.9124889646926782
s(dp1657
g3
F0.10450965639450627
sg4
F0.06649986950168568
stp1658
s(I11
I76
tp1659
((dp1660
g3
F-0.00036908880934571897
sg4
F0.9381273955357087
s(dp1661
g3
F0.09588852233760287
sg4
F0.06793752998169339
s(dp1662
g3
F2.5629258848937875
sg4
F1.893716751764339
s(dp1663
g3
F0.21653592461010596
sg4
F0.21142099848513696
stp1664
s(I12
I86
tp1665
((dp1666
g3
F0.02217194810580647
sg4
F0.8276435748487585
s(dp1667
g3
F0.08252606466457657
sg4
F0.051770029831997855
s(dp1668
g3
F2.034260316077499
sg4
F2.2624443106992898
s(dp1669
g3
F0.3143064199456991
sg4
F0.2950149989187233
stp1670
s(I9
I44
tp1671
((dp1672
g3
F-0.05140065803142524
sg4
F0.9463189246801839
s(dp1673
g3
F0.09565849751735223
sg4
F0.06784341092362178
s(dp1674
g3
F1.7575206357600544
sg4
F1.7802990884224907
s(dp1675
g3
F0.242253011525835
sg4
F0.18264494324502012
stp1676
s(I6
I36
tp1677
((dp1678
g3
F-0.033599417831245315
sg4
F0.8585648480708142
s(dp1679
g3
F0.08644736212311704
sg4
F0.05452595589546255
s(dp1680
g3
F1.1512547936517068
sg4
F1.7240444573027596
s(dp1681
g3
F0.26417798789922264
sg4
F0.1785687380406975
stp1682
s(I10
I43
tp1683
((dp1684
g3
F0.011017963372773831
sg4
F0.9294850670110142
s(dp1685
g3
F0.09462831616360212
sg4
F0.06493332552913356
s(dp1686
g3
F1.7539881229998646
sg4
F1.80638637014341
s(dp1687
g3
F0.23478896049833642
sg4
F0.19192656040399791
stp1688
s(I8
I55
tp1689
((dp1690
g3
F0.05811895375173681
sg4
F0.8951770653403038
s(dp1691
g3
F0.09035950262615944
sg4
F0.06289146547299895
s(dp1692
g3
F2.1626849672675643
sg4
F1.8135492564598057
s(dp1693
g3
F0.22112782145397003
sg4
F0.1880187511344733
stp1694
s(I7
I33
tp1695
((dp1696
g3
F9.376748164768856e-05
sg4
F0.8770168671968062
s(dp1697
g3
F0.088942757534198
sg4
F0.058698364400591396
s(dp1698
g3
F1.367657597384786
sg4
F1.5151974123732002
s(dp1699
g3
F0.17623929352789602
sg4
F0.11869222139761293
stp1700
s(I13
I78
tp1701
((dp1702
g3
F-0.007076131934236618
sg4
F0.913609525593678
s(dp1703
g3
F0.09116709248458726
sg4
F0.06589508407588662
s(dp1704
g3
F2.5910523543306923
sg4
F1.9523701515644847
s(dp1705
g3
F0.22833781909162765
sg4
F0.20956658645554693
stp1706
s(I11
I34
tp1707
((dp1708
g3
F0.019370820015797374
sg4
F0.8671854079742866
s(dp1709
g3
F0.08809338830798485
sg4
F0.05933208473577867
s(dp1710
g3
F1.2864961177820828
sg4
F1.769309230487406
s(dp1711
g3
F0.26439096917614635
sg4
F0.18007083663894696
stp1712
s(I9
I54
tp1713
((dp1714
g3
F-0.019655690306533025
sg4
F0.908138297284204
s(dp1715
g3
F0.09258790489662572
sg4
F0.06351719960929803
s(dp1716
g3
F2.1574472895098826
sg4
F1.8327964614755015
s(dp1717
g3
F0.22578831165774127
sg4
F0.19986947681337752
stp1718
s(I6
I62
tp1719
((dp1720
g3
F-0.030287762610189395
sg4
F0.8801535585096913
s(dp1721
g3
F0.08776255090470392
sg4
F0.06052802879751201
s(dp1722
g3
F2.350310893806025
sg4
F1.8728317424849423
s(dp1723
g3
F0.22401569774763574
sg4
F0.2049203667146282
stp1724
s(I12
I37
tp1725
((dp1726
g3
F-0.005839989423245706
sg4
F0.8938880932572694
s(dp1727
g3
F0.09035747818516832
sg4
F0.05907856042964893
s(dp1728
g3
F1.4505660115593773
sg4
F1.8256714925765993
s(dp1729
g3
F0.2655582816759381
sg4
F0.19102069605506178
stp1730
s(I10
I53
tp1731
((dp1732
g3
F0.0028319844127790983
sg4
F0.8958664797871349
s(dp1733
g3
F0.09127853371210903
sg4
F0.060746969809447326
s(dp1734
g3
F2.120501411323732
sg4
F1.7896180753689162
s(dp1735
g3
F0.21807371004420295
sg4
F0.18352703394876557
stp1736
s(I8
I29
tp1737
((dp1738
g3
F0.005843117348820481
sg4
F0.9183574013499349
s(dp1739
g3
F0.09321267960932977
sg4
F0.06263600701054634
s(dp1740
g3
F0.8496073126362906
sg4
F1.7490777801179287
s(dp1741
g3
F0.28489676609833603
sg4
F0.19111749295843006
stp1742
s(I7
I63
tp1743
((dp1744
g3
F0.03636054110344755
sg4
F0.9500192305253563
s(dp1745
g3
F0.09702874219625818
sg4
F0.06922318910003844
s(dp1746
g3
F2.3649501577724346
sg4
F1.8150148596999776
s(dp1747
g3
F0.21123925659792286
sg4
F0.18754865731135373
stp1748
s(I13
I40
tp1749
((dp1750
g3
F-0.007517487168990922
sg4
F0.9179859301763584
s(dp1751
g3
F0.09480396138232172
sg4
F0.06373040783492856
s(dp1752
g3
F1.6154880850624886
sg4
F1.7911658636287084
s(dp1753
g3
F0.24187757563137247
sg4
F0.1842154751681333
stp1754
s(I11
I56
tp1755
((dp1756
g3
F-0.036343110427700887
sg4
F0.9127251478145959
s(dp1757
g3
F0.09183781191086349
sg4
F0.06414101827986574
s(dp1758
g3
F2.2498009816214974
sg4
F1.846672128090523
s(dp1759
g3
F0.2208627195976005
sg4
F0.2014730425431912
stp1760
s(I9
I24
tp1761
((dp1762
g3
F0.016790419839419757
sg4
F0.9136935301798241
s(dp1763
g3
F0.09262985843735577
sg4
F0.0619176084221596
s(dp1764
g3
F0.6743347960412498
sg4
F1.6959728766251967
s(dp1765
g3
F0.2812431261516549
sg4
F0.2043999841579629
stp1766
s(I6
I80
tp1767
((dp1768
g3
F-0.05474039682279708
sg4
F0.8550870075999764
s(dp1769
g3
F0.08612545816937744
sg4
F0.058244896663973755
s(dp1770
g3
F2.521866848040851
sg4
F1.9496925496125943
s(dp1771
g3
F0.22677182433272924
sg4
F0.21348349535504696
stp1772
s(I12
I3
tp1773
((dp1774
g3
F-0.009615225914508363
sg4
F0.8618520476738231
s(dp1775
g3
F0.08726631154160192
sg4
F0.058638678966987046
s(dp1776
g3
F0.1960685209934252
sg4
F0.9080191040755776
s(dp1777
g3
F0.0958002303812775
sg4
F0.0631666379171309
stp1778
s(I10
I31
tp1779
((dp1780
g3
F-0.04461306550970312
sg4
F0.8945038024082462
s(dp1781
g3
F0.09081033220983148
sg4
F0.0610350429434342
s(dp1782
g3
F1.1647238902784913
sg4
F1.7321364499876697
s(dp1783
g3
F0.2389760218708722
sg4
F0.17458949761158082
stp1784
s(I13
I2
tp1785
((dp1786
g3
F-0.03304651720169349
sg4
F0.8917269469906488
s(dp1787
g3
F0.0895794764985468
sg4
F0.060104414441337184
s(dp1788
g3
F0.06846858152403357
sg4
F0.894465154924101
s(dp1789
g3
F0.09219664339047895
sg4
F0.062237418495663444
stp1790
s(I11
I30
tp1791
((dp1792
g3
F-0.021547683040978205
sg4
F0.9081001270107059
s(dp1793
g3
F0.09224594855495105
sg4
F0.06241381130363255
s(dp1794
g3
F1.092593031220062
sg4
F1.7410970356549402
s(dp1795
g3
F0.2601917773873026
sg4
F0.18026424595892276
stp1796
s(I7
I76
tp1797
((dp1798
g3
F0.03154781001895013
sg4
F0.9128706968875476
s(dp1799
g3
F0.09376693147377818
sg4
F0.06323794658108439
s(dp1800
g3
F2.5880181356940817
sg4
F1.8809946393860741
s(dp1801
g3
F0.21512609625831747
sg4
F0.2193114373337035
stp1802
s(I12
I25
tp1803
((dp1804
g3
F0.014172690553235556
sg4
F0.8423966455923239
s(dp1805
g3
F0.08473224387310718
sg4
F0.056097325675239895
s(dp1806
g3
F0.7596729598798397
sg4
F1.8063373499436937
s(dp1807
g3
F0.3142291187252938
sg4
F0.21717660683669926
stp1808
s(I8
I73
tp1809
((dp1810
g3
F-0.02310382934716937
sg4
F0.9113777767151083
s(dp1811
g3
F0.09176207792523983
sg4
F0.062492236762014874
s(dp1812
g3
F2.5234496640536386
sg4
F1.87960510365254
s(dp1813
g3
F0.21452629117172917
sg4
F0.2095535059241339
stp1814
s(I13
I28
tp1815
((dp1816
g3
F0.01690745015589412
sg4
F0.9064879292147183
s(dp1817
g3
F0.09185358140962163
sg4
F0.06259306227621114
s(dp1818
g3
F1.1999166868896198
sg4
F1.5752833017166619
s(dp1819
g3
F0.1881901378649955
sg4
F0.13358331586411853
stp1820
s(I10
I67
tp1821
((dp1822
g3
F-0.009111879742588203
sg4
F0.9161304518650999
s(dp1823
g3
F0.09307985938822255
sg4
F0.06354130829062027
s(dp1824
g3
F2.4723812016301205
sg4
F1.8292382515545984
s(dp1825
g3
F0.21053011252947496
sg4
F0.18460139359009897
stp1826
s(I6
I5
tp1827
((dp1828
g3
F-0.03868976081772524
sg4
F0.8814726370739745
s(dp1829
g3
F0.08940224251179707
sg4
F0.05635766442762502
s(dp1830
g3
F0.2116427183555487
sg4
F0.8523623531878257
s(dp1831
g3
F0.08712916839540863
sg4
F0.05412649917196871
stp1832
s(I7
I0
tp1833
((dp1834
g3
F-0.043207221814648755
sg4
F0.8783279568390358
s(dp1835
g3
F0.08897427763495291
sg4
F0.05787116441191065
s(dp1836
g3
F-0.020251484483323923
sg4
F0.8978886883491746
s(dp1837
g3
F0.0900205328217919
sg4
F0.06013056467179623
stp1838
s(I11
I69
tp1839
((dp1840
g3
F0.010610338759993398
sg4
F0.8997336025807923
s(dp1841
g3
F0.09099508361595177
sg4
F0.06023763233839191
s(dp1842
g3
F2.518037566663632
sg4
F1.8822059360669934
s(dp1843
g3
F0.21803460102182126
sg4
F0.21175800705818615
stp1844
s(I12
I77
tp1845
((dp1846
g3
F-0.02747252947667045
sg4
F0.8978939408968808
s(dp1847
g3
F0.09057800522789156
sg4
F0.061512204001618165
s(dp1848
g3
F2.587065606756363
sg4
F1.9653644742665184
s(dp1849
g3
F0.22989882064772638
sg4
F0.21845916656298403
stp1850
s(I9
I85
tp1851
((dp1852
g3
F0.02305996628152407
sg4
F0.8416813437907821
s(dp1853
g3
F0.08438964228632412
sg4
F0.05064717777707389
s(dp1854
g3
F2.1718051457444014
sg4
F2.2395806512267025
s(dp1855
g3
F0.2959652193091813
sg4
F0.2739412825273053
stp1856
s(I6
I31
tp1857
((dp1858
g3
F0.046696976861120065
sg4
F0.8691982546873522
s(dp1859
g3
F0.08794282469113235
sg4
F0.05579250074454495
s(dp1860
g3
F1.3336048062247214
sg4
F1.3844297191919483
s(dp1861
g3
F0.15860577800784892
sg4
F0.10419664749900392
stp1862
s(I8
I62
tp1863
((dp1864
g3
F-0.004263442262359307
sg4
F0.9142675738558113
s(dp1865
g3
F0.0932160560106402
sg4
F0.06341611846810047
s(dp1866
g3
F2.3408908619018414
sg4
F1.9217546702793875
s(dp1867
g3
F0.23233259808308326
sg4
F0.20635925375098807
stp1868
s(I7
I30
tp1869
((dp1870
g3
F-0.011154977974754399
sg4
F0.8867133338176457
s(dp1871
g3
F0.08931222729931515
sg4
F0.05893226196342849
s(dp1872
g3
F0.8824043963910229
sg4
F1.6962145751306688
s(dp1873
g3
F0.2901583614791824
sg4
F0.18716963376660445
stp1874
s(I13
I71
tp1875
((dp1876
g3
F0.015007147800131904
sg4
F0.8983911358214167
s(dp1877
g3
F0.09130132585354755
sg4
F0.06284314259348961
s(dp1878
g3
F2.5584702300633815
sg4
F1.7981323097377395
s(dp1879
g3
F0.20525088171232864
sg4
F0.1813098663909818
stp1880
s(I9
I63
tp1881
((dp1882
g3
F0.0661633402886872
sg4
F0.9217706372297234
s(dp1883
g3
F0.09339349607604014
sg4
F0.06336847313377791
s(dp1884
g3
F2.399414570858953
sg4
F1.8418943130109637
s(dp1885
g3
F0.21431714988280381
sg4
F0.19607400873439074
stp1886
s(I6
I49
tp1887
((dp1888
g3
F0.03714106865844791
sg4
F0.882907126402271
s(dp1889
g3
F0.08929411101806684
sg4
F0.06082759879290117
s(dp1890
g3
F1.8668354539589926
sg4
F1.752363106356092
s(dp1891
g3
F0.22577107882936387
sg4
F0.1710842766446723
stp1892
s(I10
I60
tp1893
((dp1894
g3
F0.004306646812383352
sg4
F0.9399098998002015
s(dp1895
g3
F0.09686720150695383
sg4
F0.06503308436879462
s(dp1896
g3
F2.3127840110016047
sg4
F1.884140343364892
s(dp1897
g3
F0.2303384440047258
sg4
F0.20062926219086952
stp1898
s(I8
I4
tp1899
((dp1900
g3
F0.04530657994660703
sg4
F0.8547679141328555
s(dp1901
g3
F0.08492158135654265
sg4
F0.05316106175414004
s(dp1902
g3
F0.14734287321526907
sg4
F0.8606037904521424
s(dp1903
g3
F0.08912961893700744
sg4
F0.05771970272961946
stp1904
s(I7
I52
tp1905
((dp1906
g3
F0.018594026063776248
sg4
F0.9061802015204441
s(dp1907
g3
F0.09155574028503255
sg4
F0.05905740762429701
s(dp1908
g3
F1.981244046271426
sg4
F1.7787772724969149
s(dp1909
g3
F0.22143534015099342
sg4
F0.17962936753900682
stp1910
s(I13
I33
tp1911
((dp1912
g3
F0.04140642511525239
sg4
F0.885162140851207
s(dp1913
g3
F0.08946004069957436
sg4
F0.06022420250176258
s(dp1914
g3
F1.285987231794187
sg4
F1.7582742380308893
s(dp1915
g3
F0.26254315409426043
sg4
F0.18444916590173088
stp1916
s(I11
I49
tp1917
((dp1918
g3
F-0.020864975828357002
sg4
F0.9048855702735599
s(dp1919
g3
F0.0914662774275013
sg4
F0.06503485468764897
s(dp1920
g3
F1.9684092391438486
sg4
F1.8788593337672364
s(dp1921
g3
F0.2386980939881913
sg4
F0.1945570358545059
stp1922
s(I9
I1
tp1923
((dp1924
g3
F-0.012134556674987751
sg4
F0.9016541763119672
s(dp1925
g3
F0.09057987763925429
sg4
F0.06110465674668758
s(dp1926
g3
F0.028209622416947244
sg4
F0.9335458230315281
s(dp1927
g3
F0.09537059541355164
sg4
F0.06569824439986083
stp1928
s(I6
I75
tp1929
((dp1930
g3
F0.053371845246079186
sg4
F0.9098841042785619
s(dp1931
g3
F0.0904926343382016
sg4
F0.06173926075869118
s(dp1932
g3
F2.571935543272536
sg4
F1.91415608970745
s(dp1933
g3
F0.22150537760395506
sg4
F0.19934408785923052
stp1934
s(I12
I58
tp1935
((dp1936
g3
F0.010088534789993275
sg4
F0.9426706596687996
s(dp1937
g3
F0.09626002702975
sg4
F0.07102340735165408
s(dp1938
g3
F2.2998062770764367
sg4
F1.8903098248777328
s(dp1939
g3
F0.22903921434204788
sg4
F0.20032914860781637
stp1940
s(I10
I6
tp1941
((dp1942
g3
F-0.009667500355199476
sg4
F0.9109719719322744
s(dp1943
g3
F0.09321756994225766
sg4
F0.06201020084461162
s(dp1944
g3
F0.2364843620526309
sg4
F0.8932046495683801
s(dp1945
g3
F0.09472655213266123
sg4
F0.062208201318314726
stp1946
s(I13
I59
tp1947
((dp1948
g3
F0.03360915059519254
sg4
F0.8845733243591525
s(dp1949
g3
F0.08942836467666188
sg4
F0.06032679101284699
s(dp1950
g3
F2.249388415666404
sg4
F1.8225219215195925
s(dp1951
g3
F0.21581305700928244
sg4
F0.199248134010226
stp1952
s(I11
I23
tp1953
((dp1954
g3
F0.009828394483412772
sg4
F0.8834526625707391
s(dp1955
g3
F0.08919222448904796
sg4
F0.05984216556049954
s(dp1956
g3
F0.66785150391134
sg4
F1.7409747134033489
s(dp1957
g3
F0.29193497802189294
sg4
F0.21450526816209858
stp1958
s(I7
I69
tp1959
((dp1960
g3
F-0.06699142688902404
sg4
F0.8800122570566029
s(dp1961
g3
F0.08931497788781934
sg4
F0.06010032874709442
s(dp1962
g3
F2.5100152943486753
sg4
F1.8354413660590059
s(dp1963
g3
F0.21221194668004073
sg4
F0.18567098861404507
stp1964
s(I12
I16
tp1965
((dp1966
g3
F0.03437080847938456
sg4
F0.8828110991093124
s(dp1967
g3
F0.0892490178829376
sg4
F0.059008130124534375
s(dp1968
g3
F0.9075803617888538
sg4
F1.1006540527498743
s(dp1969
g3
F0.1655573105812207
sg4
F0.10489573052250722
stp1970
s(I13
I21
tp1971
((dp1972
g3
F0.013629833627679666
sg4
F0.9029487118578914
s(dp1973
g3
F0.09118290778001686
sg4
F0.06292015244514254
s(dp1974
g3
F0.6641726568997028
sg4
F1.6137304177763134
s(dp1975
g3
F0.24517437612927107
sg4
F0.17356031144532513
stp1976
s(I10
I74
tp1977
((dp1978
g3
F-0.046392138442625686
sg4
F0.9130789779126244
s(dp1979
g3
F0.09354738936817769
sg4
F0.062111776318341916
s(dp1980
g3
F2.5444438195713444
sg4
F1.838167481605329
s(dp1981
g3
F0.21200956420908135
sg4
F0.20300604734036243
stp1982
s(I8
I86
tp1983
((dp1984
g3
F-0.016394538849898277
sg4
F0.8544578448237663
s(dp1985
g3
F0.08603510767815331
sg4
F0.05533095513193309
s(dp1986
g3
F1.9439993614163074
sg4
F2.366510280594486
s(dp1987
g3
F0.3440714508763243
sg4
F0.33778234389519546
stp1988
s(I12
I68
tp1989
((dp1990
g3
F-0.03350966672335032
sg4
F0.9053996621735245
s(dp1991
g3
F0.09285867320779334
sg4
F0.06342335687919337
s(dp1992
g3
F2.4727445024231325
sg4
F1.8673719854395177
s(dp1993
g3
F0.21487604613222544
sg4
F0.20605866423597563
stp1994
s(I10
I84
tp1995
((dp1996
g3
F-0.032582679024386496
sg4
F0.8782799160738751
s(dp1997
g3
F0.08913736078774703
sg4
F0.05608851814996624
s(dp1998
g3
F2.341909714042095
sg4
F2.1177911494286366
s(dp1999
g3
F0.256298433107057
sg4
F0.24673124395687962
stp2000
s(I6
I22
tp2001
((dp2002
g3
F-0.05157655020599061
sg4
F0.8819081526299521
s(dp2003
g3
F0.0883560533439226
sg4
F0.05434289249434354
s(dp2004
g3
F0.7667223165078922
sg4
F1.7076789126581737
s(dp2005
g3
F0.21943987923863584
sg4
F0.2501843507448501
stp2006
s(I8
I37
tp2007
((dp2008
g3
F0.02295406927313204
sg4
F0.9210953699807298
s(dp2009
g3
F0.0940121208239254
sg4
F0.06503176971490737
s(dp2010
g3
F1.383075683868034
sg4
F1.7629108591473042
s(dp2011
g3
F0.2608793507516758
sg4
F0.18479025359381984
stp2012
s(I7
I23
tp2013
((dp2014
g3
F0.026474899985995615
sg4
F0.8811444479710685
s(dp2015
g3
F0.08901772635807875
sg4
F0.058132914600782015
s(dp2016
g3
F0.6652538753588979
sg4
F1.688400645590726
s(dp2017
g3
F0.2523690992738922
sg4
F0.217226126774675
stp2018
s(I13
I64
tp2019
((dp2020
g3
F0.00025208085797268076
sg4
F0.9240273187450075
s(dp2021
g3
F0.09404395046175562
sg4
F0.06336091898571472
s(dp2022
g3
F2.4342111425039823
sg4
F1.896666136581982
s(dp2023
g3
F0.220159644375844
sg4
F0.19853984813463654
stp2024
s(I11
I80
tp2025
((dp2026
g3
F0.04006782484083882
sg4
F0.9082876652933898
s(dp2027
g3
F0.0940393982058852
sg4
F0.062445363239049145
s(dp2028
g3
F2.5184696368881685
sg4
F1.940795661137807
s(dp2029
g3
F0.2234058811539441
sg4
F0.21754995228577512
stp2030
s(I9
I32
tp2031
((dp2032
g3
F0.009255714904458756
sg4
F0.9002281252174887
s(dp2033
g3
F0.09122626660596528
sg4
F0.06183622233297609
s(dp2034
g3
F1.203668393803988
sg4
F1.7022586622846434
s(dp2035
g3
F0.2423534820623494
sg4
F0.16944827109967553
stp2036
s(I6
I40
tp2037
((dp2038
g3
F-0.0637024301451643
sg4
F0.8592210350909137
s(dp2039
g3
F0.08743956348822474
sg4
F0.056655621687971
s(dp2040
g3
F1.3814374567627672
sg4
F1.683836643369718
s(dp2041
g3
F0.23925517918510586
sg4
F0.16966530537489533
stp2042
s(I10
I39
tp2043
((dp2044
g3
F0.009561572954839281
sg4
F0.92308023883564
s(dp2045
g3
F0.09345324596470256
sg4
F0.06616521129193104
s(dp2046
g3
F1.5428002480933891
sg4
F1.8121857475394658
s(dp2047
g3
F0.259827146318254
sg4
F0.19284500858313947
stp2048
s(I8
I11
tp2049
((dp2050
g3
F0.03858429521282636
sg4
F0.8803203670145437
s(dp2051
g3
F0.08840731090087645
sg4
F0.05775734259407689
s(dp2052
g3
F0.3486140763561436
sg4
F1.0685451845940386
s(dp2053
g3
F0.11992300200865846
sg4
F0.10783577291257929
stp2054
s(I7
I45
tp2055
((dp2056
g3
F-0.015923006291515995
sg4
F0.9322778183953876
s(dp2057
g3
F0.09535777826254
sg4
F0.06462457346102446
s(dp2058
g3
F1.78882840817497
sg4
F1.6843264002706435
s(dp2059
g3
F0.20595595873722594
sg4
F0.15602746310685645
stp2060
s(I11
I54
tp2061
((dp2062
g3
F-0.0006561283953550046
sg4
F0.9224879666598663
s(dp2063
g3
F0.09474650712717775
sg4
F0.06478518751603674
s(dp2064
g3
F2.1687388495398605
sg4
F1.8366522196454673
s(dp2065
g3
F0.23115592160399068
sg4
F0.19512021678758462
stp2066
s(I9
I10
tp2067
((dp2068
g3
F0.00812335916412632
sg4
F0.890421773109892
s(dp2069
g3
F0.089630606185293
sg4
F0.0576041134785239
s(dp2070
g3
F0.4473256112862076
sg4
F0.9492808917292924
s(dp2071
g3
F0.11074842012328745
sg4
F0.0695698984214066
stp2072
s(I6
I66
tp2073
((dp2074
g3
F-0.03857718822378631
sg4
F0.8804142997921615
s(dp2075
g3
F0.08911339940718366
sg4
F0.05933896050265086
s(dp2076
g3
F2.409697203162394
sg4
F1.8206682032742287
s(dp2077
g3
F0.21353953648862878
sg4
F0.187299259410162
stp2078
s(I12
I49
tp2079
((dp2080
g3
F0.05372622058293963
sg4
F0.8846029690436414
s(dp2081
g3
F0.08896158006360078
sg4
F0.06101046614034922
s(dp2082
g3
F1.9850851373901257
sg4
F1.8511103410716314
s(dp2083
g3
F0.22776927778280176
sg4
F0.19449999578967958
stp2084
s(I10
I1
tp2085
((dp2086
g3
F-0.005619252831367105
sg4
F0.8585054625210401
s(dp2087
g3
F0.08417987170882213
sg4
F0.055174488526273546
s(dp2088
g3
F0.014356926205632448
sg4
F0.8663080454390921
s(dp2089
g3
F0.08594756850293794
sg4
F0.0584952365502287
stp2090
s(I8
I17
tp2091
((dp2092
g3
F-0.00460170056901632
sg4
F0.9009874534969465
s(dp2093
g3
F0.0912634550830208
sg4
F0.06127359029235613
s(dp2094
g3
F0.21274941761315347
sg4
F1.6784452812943091
s(dp2095
g3
F0.30376407611187867
sg4
F0.26156031422329107
stp2096
s(I13
I52
tp2097
((dp2098
g3
F0.02737020192527906
sg4
F0.9523096223967985
s(dp2099
g3
F0.09757238897991583
sg4
F0.06804923919835859
s(dp2100
g3
F2.1151714756904796
sg4
F1.7895339972901647
s(dp2101
g3
F0.22450951402285413
sg4
F0.1807689465672172
stp2102
s(I11
I12
tp2103
((dp2104
g3
F0.014771044909813957
sg4
F0.9177253143108445
s(dp2105
g3
F0.09376507849770133
sg4
F0.06179672987860729
s(dp2106
g3
F0.4481782864336439
sg4
F1.0001801615122308
s(dp2107
g3
F0.11766719115535584
sg4
F0.08443083065246604
stp2108
s(I7
I66
tp2109
((dp2110
g3
F0.024033377055101113
sg4
F0.878668502087864
s(dp2111
g3
F0.08962364693572383
sg4
F0.05792482184570846
s(dp2112
g3
F2.449104304112473
sg4
F1.8499160709886164
s(dp2113
g3
F0.21549624601385853
sg4
F0.19522477897088886
stp2114
s(I12
I15
tp2115
((dp2116
g3
F0.045897554315838196
sg4
F0.894693725628802
s(dp2117
g3
F0.08996211242734786
sg4
F0.06155003850933688
s(dp2118
g3
F0.737372534457315
sg4
F1.1108503165179782
s(dp2119
g3
F0.14960483357740173
sg4
F0.10872765924193062
stp2120
s(I13
I14
tp2121
((dp2122
g3
F0.012736281782919523
sg4
F0.8781551531453724
s(dp2123
g3
F0.08898809413946257
sg4
F0.057252613069420255
s(dp2124
g3
F0.6212349227999479
sg4
F1.0153999668806977
s(dp2125
g3
F0.13764207457405142
sg4
F0.09115612534226364
stp2126
s(I7
I88
tp2127
((dp2128
g3
F-0.04706567757885016
sg4
F0.8293873418736881
s(dp2129
g3
F0.08228186834495466
sg4
F0.05015249572234204
s(dp2130
g3
F1.0003021040553959
sg4
F2.793412836263017
s(dp2131
g3
F0.6067657952569553
sg4
F0.43488002400674386
stp2132
s(I12
I67
tp2133
((dp2134
g3
F-0.00039987995845314206
sg4
F0.9304535658795966
s(dp2135
g3
F0.09531897000385758
sg4
F0.06617521955840289
s(dp2136
g3
F2.5684353799470814
sg4
F1.7340939353835758
s(dp2137
g3
F0.19128719258452342
sg4
F0.14806788569802098
stp2138
s(I9
I71
tp2139
((dp2140
g3
F0.08532719947826073
sg4
F0.8957763140716466
s(dp2141
g3
F0.09112737954106243
sg4
F0.06156192483337297
s(dp2142
g3
F2.5410596747229963
sg4
F1.911808116774469
s(dp2143
g3
F0.22059194583895692
sg4
F0.20126195683720693
stp2144
s(I6
I9
tp2145
((dp2146
g3
F0.007105885477327156
sg4
F0.8209750234205988
s(dp2147
g3
F0.08177121204924176
sg4
F0.049919185641101926
s(dp2148
g3
F0.3995184987465996
sg4
F0.854920041086334
s(dp2149
g3
F0.09580968271491597
sg4
F0.056458772995427065
stp2150
s(I8
I44
tp2151
((dp2152
g3
F-0.030852980888206094
sg4
F0.8777450509479808
s(dp2153
g3
F0.08745560160913168
sg4
F0.05901358165536197
s(dp2154
g3
F1.7845841869053691
sg4
F1.77182174756045
s(dp2155
g3
F0.23609772422097652
sg4
F0.18378061199120876
stp2156
s(I7
I12
tp2157
((dp2158
g3
F-0.025562620309312
sg4
F0.8296869034108061
s(dp2159
g3
F0.08194153782018249
sg4
F0.05038390656395442
s(dp2160
g3
F0.3976028792972446
sg4
F1.0121391774178878
s(dp2161
g3
F0.11701248205586134
sg4
F0.07866917927964728
stp2162
s(I11
I73
tp2163
((dp2164
g3
F-0.0358872277949277
sg4
F0.9318206579196279
s(dp2165
g3
F0.09470317984264842
sg4
F0.06656073471126789
s(dp2166
g3
F2.5181460680902257
sg4
F1.8972930714063603
s(dp2167
g3
F0.21678631654985803
sg4
F0.2079336290333741
stp2168
s(I12
I89
tp2169
((dp2170
g3
F-0.03331053915209392
sg4
F0.8288407644998941
s(dp2171
g3
F0.08246469012481633
sg4
F0.04798418777098329
s(dp2172
g3
F-0.2778621498153724
sg4
F3.282035483750627
s(dp2173
g3
F1.1402559379346011
sg4
F0.6837308485251461
stp2174
s(I9
I41
tp2175
((dp2176
g3
F0.015101925911337855
sg4
F0.9215664751535214
s(dp2177
g3
F0.09447372459425207
sg4
F0.06287706936957244
s(dp2178
g3
F1.618466963265952
sg4
F1.8032950605657894
s(dp2179
g3
F0.2524182296319706
sg4
F0.18241085565468962
stp2180
s(I6
I35
tp2181
((dp2182
g3
F0.023273944630318066
sg4
F0.9016443816618398
s(dp2183
g3
F0.09154272863249763
sg4
F0.059912407207880325
s(dp2184
g3
F1.11346921511633
sg4
F1.6588021084960984
s(dp2185
g3
F0.24933109112705
sg4
F0.1638423523284891
stp2186
s(I10
I46
tp2187
((dp2188
g3
F-0.01104150092278866
sg4
F0.9130191682333163
s(dp2189
g3
F0.09191202327858639
sg4
F0.06433216063866859
s(dp2190
g3
F1.8917756143291493
sg4
F1.8199510424914296
s(dp2191
g3
F0.23263984029779938
sg4
F0.1896758522702947
stp2192
s(I8
I50
tp2193
((dp2194
g3
F0.010700243434926815
sg4
F0.9423457017571767
s(dp2195
g3
F0.09677789440233975
sg4
F0.06585399180442936
s(dp2196
g3
F2.0075971544803437
sg4
F1.7259470267770458
s(dp2197
g3
F0.2013005609366061
sg4
F0.166612380814545
stp2198
s(I7
I42
tp2199
((dp2200
g3
F-0.019320481150891355
sg4
F0.9341106250962782
s(dp2201
g3
F0.09523323954564389
sg4
F0.06484550094187924
s(dp2202
g3
F1.6048019432517369
sg4
F1.731221503147587
s(dp2203
g3
F0.22898052887449194
sg4
F0.17152366737993496
stp2204
s(I13
I83
tp2205
((dp2206
g3
F-0.023878020099919905
sg4
F0.9084781795711117
s(dp2207
g3
F0.09176722717164465
sg4
F0.0619350345269708
s(dp2208
g3
F2.4370249227600365
sg4
F2.0569807234679893
s(dp2209
g3
F0.24288606496385978
sg4
F0.2599003010634424
stp2210
s(I11
I47
tp2211
((dp2212
g3
F0.036957645993816124
sg4
F0.8965649738602655
s(dp2213
g3
F0.08966873007884663
sg4
F0.060665501482061235
s(dp2214
g3
F1.9167051099393007
sg4
F1.8265806567063938
s(dp2215
g3
F0.24122084052417647
sg4
F0.19035263441127181
stp2216
s(I9
I51
tp2217
((dp2218
g3
F-0.05460867146236237
sg4
F0.908372803516005
s(dp2219
g3
F0.09276929063355666
sg4
F0.06560315966841956
s(dp2220
g3
F2.036302136208761
sg4
F1.8084949472708445
s(dp2221
g3
F0.22720213570242986
sg4
F0.19039407801134767
stp2222
s(I6
I69
tp2223
((dp2224
g3
F-0.02193804900630414
sg4
F0.8999961412990976
s(dp2225
g3
F0.09193531352047263
sg4
F0.0611006511914145
s(dp2226
g3
F2.4938183966446505
sg4
F1.8635444604585758
s(dp2227
g3
F0.2169569843495296
sg4
F0.1986958824489925
stp2228
s(I12
I40
tp2229
((dp2230
g3
F0.03577353705241748
sg4
F0.9028785584885357
s(dp2231
g3
F0.09282307926349725
sg4
F0.061152720176957
s(dp2232
g3
F1.584395100811383
sg4
F1.8214391439917343
s(dp2233
g3
F0.2496738055820995
sg4
F0.1889445248571937
stp2234
s(I10
I8
tp2235
((dp2236
g3
F0.036034581708531466
sg4
F0.8633474686472651
s(dp2237
g3
F0.0863859350439623
sg4
F0.05599675147277061
s(dp2238
g3
F0.3957609641566544
sg4
F0.8887085069304296
s(dp2239
g3
F0.09819607522685825
sg4
F0.06365248266252699
stp2240
s(I8
I24
tp2241
((dp2242
g3
F-0.005377297875693188
sg4
F0.892214877817018
s(dp2243
g3
F0.08942312591241247
sg4
F0.05898291689607049
s(dp2244
g3
F1.0549728466670687
sg4
F1.4404993032188047
s(dp2245
g3
F0.17714193242030685
sg4
F0.12528760411403495
stp2246
s(I13
I45
tp2247
((dp2248
g3
F-0.03942569093310111
sg4
F0.9214333376122043
s(dp2249
g3
F0.09492455154897228
sg4
F0.06426615371281219
s(dp2250
g3
F1.8220073646426762
sg4
F1.7578380480259408
s(dp2251
g3
F0.2308322142085133
sg4
F0.18529128389695593
stp2252
s(I11
I5
tp2253
((dp2254
g3
F-0.01026800837343822
sg4
F0.9248312240925908
s(dp2255
g3
F0.09534247909158278
sg4
F0.06547742033918447
s(dp2256
g3
F0.2416470888034703
sg4
F0.8959147775807458
s(dp2257
g3
F0.09415029520753104
sg4
F0.05998552547178593
stp2258
s(I9
I21
tp2259
((dp2260
g3
F-0.005566992183720032
sg4
F0.8766311429179462
s(dp2261
g3
F0.08790518216828758
sg4
F0.05783043780193309
s(dp2262
g3
F0.5212152760018325
sg4
F1.7881336377972854
s(dp2263
g3
F0.32385016921558574
sg4
F0.25150698864622956
stp2264
s(I12
I6
tp2265
((dp2266
g3
F0.03871655928315354
sg4
F0.8771380679349426
s(dp2267
g3
F0.08842242820470769
sg4
F0.05909656799129709
s(dp2268
g3
F0.2685766527135116
sg4
F0.9116340191180381
s(dp2269
g3
F0.09832692555923117
sg4
F0.06476571107360801
stp2270
s(I10
I18
tp2271
((dp2272
g3
F-0.01463615635976745
sg4
F0.9245421411444595
s(dp2273
g3
F0.09521437729202459
sg4
F0.06594644415198558
s(dp2274
g3
F0.7703927311164533
sg4
F1.2362820174191345
s(dp2275
g3
F0.17417672120072525
sg4
F0.13018823052224981
stp2276
s(I13
I7
tp2277
((dp2278
g3
F0.028655586874981598
sg4
F0.9045478654406749
s(dp2279
g3
F0.0911699816975729
sg4
F0.061318377545552416
s(dp2280
g3
F0.3587132110485389
sg4
F0.8910795525932436
s(dp2281
g3
F0.09635429208052448
sg4
F0.06014332994698235
stp2282
s(I11
I27
tp2283
((dp2284
g3
F0.015104059542380366
sg4
F0.887764906161261
s(dp2285
g3
F0.08889643973978395
sg4
F0.060730471479569004
s(dp2286
g3
F1.0891446205535353
sg4
F1.6555480715598108
s(dp2287
g3
F0.2160700863056222
sg4
F0.16414492415475945
stp2288
s(I7
I81
tp2289
((dp2290
g3
F-0.03137683917447198
sg4
F0.8832493111946957
s(dp2291
g3
F0.08924094039471919
sg4
F0.056925730263721885
s(dp2292
g3
F2.497080617149974
sg4
F1.9829707603020839
s(dp2293
g3
F0.23021759724341284
sg4
F0.22585127148290096
stp2294
s(I12
I28
tp2295
((dp2296
g3
F0.07206450521148833
sg4
F0.8794097531974717
s(dp2297
g3
F0.0877159179690512
sg4
F0.05792485763973099
s(dp2298
g3
F1.053968633854307
sg4
F1.7045413151429032
s(dp2299
g3
F0.2555091430703825
sg4
F0.17058422769277748
stp2300
s(I8
I68
tp2301
((dp2302
g3
F-0.030941782807197615
sg4
F0.9241812452095985
s(dp2303
g3
F0.09603216017591609
sg4
F0.06458607733591248
s(dp2304
g3
F2.5393819918268585
sg4
F1.8701249511893367
s(dp2305
g3
F0.21446626257709744
sg4
F0.19509947570989572
stp2306
s(I9
I72
tp2307
((dp2308
g3
F-0.007492931234704958
sg4
F0.8860586552043432
s(dp2309
g3
F0.08843695127124412
sg4
F0.059495617046985805
s(dp2310
g3
F2.5978634456698444
sg4
F1.8516584970998635
s(dp2311
g3
F0.21183881268864102
sg4
F0.19871758399040873
stp2312
s(I10
I70
tp2313
((dp2314
g3
F0.007651995024317015
sg4
F0.8958816121908234
s(dp2315
g3
F0.09084596027051473
sg4
F0.062189112678552094
s(dp2316
g3
F2.4981407740046158
sg4
F1.8825753316529248
s(dp2317
g3
F0.2173872691352372
sg4
F0.20474261684311057
stp2318
s(I6
I0
tp2319
((dp2320
g3
F-0.027557079098734727
sg4
F0.8212606878792504
s(dp2321
g3
F0.08151021038123801
sg4
F0.05041085644508769
s(dp2322
g3
F-0.03446588188692801
sg4
F0.8707451750219888
s(dp2323
g3
F0.08716343324793807
sg4
F0.05485392800023792
stp2324
s(I7
I5
tp2325
((dp2326
g3
F0.04485700295791406
sg4
F0.8540697403182814
s(dp2327
g3
F0.08554955946485465
sg4
F0.056369144447230846
s(dp2328
g3
F0.21951532285622477
sg4
F0.8545464308963356
s(dp2329
g3
F0.08766945605789678
sg4
F0.0552517094106878
stp2330
s(I11
I78
tp2331
((dp2332
g3
F-0.002859461902454785
sg4
F0.9002196956154362
s(dp2333
g3
F0.08980826821170584
sg4
F0.06222855426481283
s(dp2334
g3
F2.6144339486793027
sg4
F2.0059942975738023
s(dp2335
g3
F0.23433696444482965
sg4
F0.22260319307151732
stp2336
s(I12
I80
tp2337
((dp2338
g3
F-0.016954580511572392
sg4
F0.8770319629143458
s(dp2339
g3
F0.08954108890178264
sg4
F0.060326080817944716
s(dp2340
g3
F2.499126548025255
sg4
F1.9488781582252193
s(dp2341
g3
F0.22891336863642886
sg4
F0.20941290322250272
stp2342
s(I9
I82
tp2343
((dp2344
g3
F0.0168703402004049
sg4
F0.8921586547551925
s(dp2345
g3
F0.09090948625273315
sg4
F0.061218174145983795
s(dp2346
g3
F2.4784450825331126
sg4
F1.9640070025767478
s(dp2347
g3
F0.23103983434784792
sg4
F0.2226739988783989
stp2348
s(I6
I26
tp2349
((dp2350
g3
F-0.026446547867114756
sg4
F0.8469887225304168
s(dp2351
g3
F0.0843968224784718
sg4
F0.05298518849384859
s(dp2352
g3
F0.5766924608811337
sg4
F1.7639850138474915
s(dp2353
g3
F0.3118143916039158
sg4
F0.22886478783031294
stp2354
s(I10
I41
tp2355
((dp2356
g3
F-0.032220354284707375
sg4
F0.9236738917429201
s(dp2357
g3
F0.0943663889677211
sg4
F0.06520853310022345
s(dp2358
g3
F1.6282058279437934
sg4
F1.821606875124342
s(dp2359
g3
F0.25428303057290647
sg4
F0.19127116774081376
stp2360
s(I8
I57
tp2361
((dp2362
g3
F-0.010951153853862472
sg4
F0.9087870161182994
s(dp2363
g3
F0.09175128798786364
sg4
F0.06368601478890629
s(dp2364
g3
F2.213591867827449
sg4
F1.8343183150968232
s(dp2365
g3
F0.2243211046238307
sg4
F0.1986749053893816
stp2366
s(I7
I35
tp2367
((dp2368
g3
F-0.016082947165019013
sg4
F0.8894379668360547
s(dp2369
g3
F0.089320812645518
sg4
F0.05927290955527503
s(dp2370
g3
F1.2680429050892466
sg4
F1.690823309507643
s(dp2371
g3
F0.2347933366063022
sg4
F0.1625728646278336
stp2372
s(I13
I76
tp2373
((dp2374
g3
F0.01322242434987908
sg4
F0.9281265569748864
s(dp2375
g3
F0.09529953241397254
sg4
F0.06480834672077457
s(dp2376
g3
F2.530260690744161
sg4
F1.8695410349622712
s(dp2377
g3
F0.21748697080108825
sg4
F0.21064332129326369
stp2378
s(I11
I36
tp2379
((dp2380
g3
F0.011711973390197805
sg4
F0.906716340109357
s(dp2381
g3
F0.09182393641126063
sg4
F0.0613709875279122
s(dp2382
g3
F1.4851485943844862
sg4
F1.7529136118648996
s(dp2383
g3
F0.22433423457149093
sg4
F0.16451410031121205
stp2384
s(I9
I52
tp2385
((dp2386
g3
F-0.03356706425792089
sg4
F0.9018434632855971
s(dp2387
g3
F0.09048578974474952
sg4
F0.060728076187466895
s(dp2388
g3
F2.1242076932936795
sg4
F1.7405427964845726
s(dp2389
g3
F0.19438328038868335
sg4
F0.14892957631844594
stp2390
s(I6
I60
tp2391
((dp2392
g3
F0.024831048629560426
sg4
F0.921645145047149
s(dp2393
g3
F0.0924152936501701
sg4
F0.06422832578046506
s(dp2394
g3
F2.254028893873526
sg4
F1.7984507360931514
s(dp2395
g3
F0.21583344205785515
sg4
F0.1824096887557176
stp2396
s(I12
I39
tp2397
((dp2398
g3
F-0.03123982540441106
sg4
F0.917880058838119
s(dp2399
g3
F0.09246148058269243
sg4
F0.06347109435036058
s(dp2400
g3
F1.6053264679840158
sg4
F1.8050241340943818
s(dp2401
g3
F0.24304535523371307
sg4
F0.18870596030869524
stp2402
s(I10
I51
tp2403
((dp2404
g3
F0.02806892625659385
sg4
F0.8965731409752311
s(dp2405
g3
F0.09141674580783865
sg4
F0.06189855100485969
s(dp2406
g3
F2.01567285502684
sg4
F1.8302012052043275
s(dp2407
g3
F0.22633905916722452
sg4
F0.1936720801022841
stp2408
s(I8
I31
tp2409
((dp2410
g3
F0.00982208984440236
sg4
F0.8628465773877476
s(dp2411
g3
F0.08659242801995587
sg4
F0.05457475214923907
s(dp2412
g3
F1.0564390078417847
sg4
F1.7089531381195768
s(dp2413
g3
F0.25866985929264674
sg4
F0.17985032926029165
stp2414
s(I7
I57
tp2415
((dp2416
g3
F-0.006522617132641573
sg4
F0.9466752190972811
s(dp2417
g3
F0.09656065980311329
sg4
F0.06760980077914924
s(dp2418
g3
F2.1956399505511515
sg4
F1.796773861873291
s(dp2419
g3
F0.219388849035973
sg4
F0.1855441856905624
stp2420
s(I13
I38
tp2421
((dp2422
g3
F-0.018810995041949052
sg4
F0.9245920388572869
s(dp2423
g3
F0.09394129517900496
sg4
F0.061816175949885255
s(dp2424
g3
F1.5511588346852672
sg4
F1.7313727977233215
s(dp2425
g3
F0.24264722565635388
sg4
F0.17450637936031643
stp2426
s(I11
I58
tp2427
((dp2428
g3
F0.04323742649495488
sg4
F0.9140650049542134
s(dp2429
g3
F0.09321357764110011
sg4
F0.06476892964211917
s(dp2430
g3
F2.301718850196053
sg4
F1.859965900446863
s(dp2431
g3
F0.2216735334657094
sg4
F0.19229603961302022
stp2432
s(I9
I30
tp2433
((dp2434
g3
F0.03705802117780199
sg4
F0.9055503262991509
s(dp2435
g3
F0.09163182826970878
sg4
F0.061610110426619735
s(dp2436
g3
F1.1925047713936463
sg4
F1.682064700159676
s(dp2437
g3
F0.21813381592786685
sg4
F0.15680571682511857
stp2438
s(I6
I86
tp2439
((dp2440
g3
F-0.013041751253356382
sg4
F0.9097250768355607
s(dp2441
g3
F0.09391633241705011
sg4
F0.06247643636019179
s(dp2442
g3
F2.048680722018088
sg4
F2.3070770689253033
s(dp2443
g3
F0.322793259423952
sg4
F0.31195849643593787
stp2444
s(I12
I61
tp2445
((dp2446
g3
F0.039444199433581906
sg4
F0.8959355950523397
s(dp2447
g3
F0.09124930341668841
sg4
F0.0626044654676215
s(dp2448
g3
F2.2918698322504802
sg4
F1.8201249765014027
s(dp2449
g3
F0.21832516991690687
sg4
F0.19112076739567996
stp2450
s(I10
I29
tp2451
((dp2452
g3
F-0.015640754970052906
sg4
F0.9347352683760153
s(dp2453
g3
F0.09543816463888155
sg4
F0.06787061903508462
s(dp2454
g3
F0.9833913155620522
sg4
F1.7385928402112047
s(dp2455
g3
F0.26237828595172263
sg4
F0.18041663689999243
stp2456
s(I13
I0
tp2457
((dp2458
g3
F0.021993706227609433
sg4
F0.8878727085537808
s(dp2459
g3
F0.08986302905079235
sg4
F0.06106898914008341
s(dp2460
g3
F-0.04941693609900233
sg4
F0.8804956884596964
s(dp2461
g3
F0.08802604578189083
sg4
F0.05911126160300906
stp2462
s(I11
I16
tp2463
((dp2464
g3
F0.03281403995288379
sg4
F0.8877239625981991
s(dp2465
g3
F0.08989011574055467
sg4
F0.059979331650560685
s(dp2466
g3
F0.7787813309203404
sg4
F1.1814821109361897
s(dp2467
g3
F0.17243135232097806
sg4
F0.13286641632089347
stp2468
s(I7
I78
tp2469
((dp2470
g3
F-0.058531484424124924
sg4
F0.8863014609343665
s(dp2471
g3
F0.08848868686899092
sg4
F0.05822996283799864
s(dp2472
g3
F2.532877295901148
sg4
F1.9684193424853371
s(dp2473
g3
F0.23157605137547543
sg4
F0.2186782382489566
stp2474
s(I12
I27
tp2475
((dp2476
g3
F-0.009723740721572116
sg4
F0.8833158145607864
s(dp2477
g3
F0.08846520398204871
sg4
F0.06159024528895146
s(dp2478
g3
F0.9882154066913094
sg4
F1.7453536056423993
s(dp2479
g3
F0.2751736819916277
sg4
F0.1963201484066769
stp2480
s(I8
I75
tp2481
((dp2482
g3
F0.0017655858154494997
sg4
F0.9220901767532902
s(dp2483
g3
F0.0924207454438864
sg4
F0.06156987650702783
s(dp2484
g3
F2.542169714121176
sg4
F1.8806236977746988
s(dp2485
g3
F0.21844049603878113
sg4
F0.20613336761210888
stp2486
s(I13
I26
tp2487
((dp2488
g3
F-0.04079031249848475
sg4
F0.8783158751547497
s(dp2489
g3
F0.08822047294558155
sg4
F0.06026294467490112
s(dp2490
g3
F0.9500106848779022
sg4
F1.6566190266036394
s(dp2491
g3
F0.23253628054753117
sg4
F0.16583255746138648
stp2492
s(I10
I65
tp2493
((dp2494
g3
F-0.02903601894326735
sg4
F0.8922434433607813
s(dp2495
g3
F0.09088154950633343
sg4
F0.0609823054791887
s(dp2496
g3
F2.5888038705037895
sg4
F1.7024626820139468
s(dp2497
g3
F0.1912659728166839
sg4
F0.13825497267300335
stp2498
s(I8
I81
tp2499
((dp2500
g3
F0.02031524292968223
sg4
F0.9170642165913651
s(dp2501
g3
F0.09352901110989409
sg4
F0.06405595546541859
s(dp2502
g3
F2.5176003703728553
sg4
F2.030949796427887
s(dp2503
g3
F0.23487740578878857
sg4
F0.22786505585799
stp2504
s(I7
I2
tp2505
((dp2506
g3
F0.028952529859628484
sg4
F0.8551750846770367
s(dp2507
g3
F0.085354706115917
sg4
F0.053851737426688695
s(dp2508
g3
F0.05553101581334152
sg4
F0.8519203826841338
s(dp2509
g3
F0.08629385545923512
sg4
F0.053847976054616
stp2510
s(I11
I71
tp2511
((dp2512
g3
F0.01687683041757637
sg4
F0.8813286052453373
s(dp2513
g3
F0.08917454271965558
sg4
F0.05699500034042981
s(dp2514
g3
F2.5385111093394386
sg4
F1.852893514975659
s(dp2515
g3
F0.21351396418529411
sg4
F0.19501135586069507
stp2516
s(I12
I79
tp2517
((dp2518
g3
F0.023676954417129803
sg4
F0.9284762594089075
s(dp2519
g3
F0.0945735125236144
sg4
F0.063237479867083
s(dp2520
g3
F2.5612040666231275
sg4
F1.9480112006902524
s(dp2521
g3
F0.22738820168326979
sg4
F0.21569482398754303
stp2522
s(I6
I29
tp2523
((dp2524
g3
F0.012198215389920053
sg4
F0.9041410050072933
s(dp2525
g3
F0.09130266677628651
sg4
F0.05913986037965535
s(dp2526
g3
F0.9144811056096867
sg4
F1.6923766253753616
s(dp2527
g3
F0.23998047569231984
sg4
F0.19386235878393876
stp2528
s(I8
I32
tp2529
((dp2530
g3
F0.006747235585757849
sg4
F0.8807031016812956
s(dp2531
g3
F0.08894105549198089
sg4
F0.06004262795948723
s(dp2532
g3
F1.1934199062122333
sg4
F1.6433189904395535
s(dp2533
g3
F0.22040775346106456
sg4
F0.1504369538546989
stp2534
s(I7
I24
tp2535
((dp2536
g3
F-0.009650130201098062
sg4
F0.8684427206901985
s(dp2537
g3
F0.08693110608356341
sg4
F0.05515271074412392
s(dp2538
g3
F0.5606586835468439
sg4
F1.6948269469140251
s(dp2539
g3
F0.29516726407780436
sg4
F0.21343424156798552
stp2540
s(I13
I69
tp2541
((dp2542
g3
F0.015621234829703567
sg4
F0.904852341671445
s(dp2543
g3
F0.09269213743798882
sg4
F0.06188711829491056
s(dp2544
g3
F2.526329637212843
sg4
F1.8560174069328728
s(dp2545
g3
F0.21247730102051232
sg4
F0.19713169182957402
stp2546
s(I9
I61
tp2547
((dp2548
g3
F-0.0017864067030483044
sg4
F0.9442561753579289
s(dp2549
g3
F0.09694781743391795
sg4
F0.06840381847782029
s(dp2550
g3
F2.336830646232148
sg4
F1.8264924746201414
s(dp2551
g3
F0.21634169690940164
sg4
F0.19684375168649226
stp2552
s(I6
I55
tp2553
((dp2554
g3
F0.032316002788074005
sg4
F0.8753927403305127
s(dp2555
g3
F0.08837357862324119
sg4
F0.05730712789467929
s(dp2556
g3
F2.0945652242709505
sg4
F1.7886025751880255
s(dp2557
g3
F0.22127473348352167
sg4
F0.179256764487565
stp2558
s(I10
I58
tp2559
((dp2560
g3
F0.03861492748247208
sg4
F0.9073548121124471
s(dp2561
g3
F0.0919480570955647
sg4
F0.06423253299762749
s(dp2562
g3
F2.238840029206232
sg4
F1.807334196437258
s(dp2563
g3
F0.2127582246487325
sg4
F0.18620948489358147
stp2564
s(I8
I6
tp2565
((dp2566
g3
F0.060622742562224996
sg4
F0.8649849444990309
s(dp2567
g3
F0.08738824394492195
sg4
F0.05621230715176839
s(dp2568
g3
F0.2856661304932584
sg4
F0.8538395605438087
s(dp2569
g3
F0.09171669438837882
sg4
F0.054555476234884326
stp2570
s(I7
I54
tp2571
((dp2572
g3
F0.04376713252435893
sg4
F0.8972111034809045
s(dp2573
g3
F0.09098219810443986
sg4
F0.0630587108397348
s(dp2574
g3
F2.13999706423577
sg4
F1.7770802153409113
s(dp2575
g3
F0.2172873814345544
sg4
F0.1792160655935413
stp2576
s(I11
I51
tp2577
((dp2578
g3
F0.009510682547014593
sg4
F0.9164425711961959
s(dp2579
g3
F0.0938933282561123
sg4
F0.06335307600170009
s(dp2580
g3
F2.0710740166608086
sg4
F1.8543722931757651
s(dp2581
g3
F0.22886543385313574
sg4
F0.19876635392520448
stp2582
s(I9
I7
tp2583
((dp2584
g3
F-0.0180216103032681
sg4
F0.8876016832027929
s(dp2585
g3
F0.08928591684351361
sg4
F0.05759373310404092
s(dp2586
g3
F0.35414622585785915
sg4
F0.8785336139563276
s(dp2587
g3
F0.09297263173437043
sg4
F0.05990047096974871
stp2588
s(I6
I73
tp2589
((dp2590
g3
F0.014987741136296417
sg4
F0.9236202875861005
s(dp2591
g3
F0.09424664651981407
sg4
F0.06195017275826037
s(dp2592
g3
F2.507143442265106
sg4
F1.8678462999734098
s(dp2593
g3
F0.21362737562703504
sg4
F0.20410355061007945
stp2594
s(I12
I52
tp2595
((dp2596
g3
F0.024520922225701014
sg4
F0.9559223305559394
s(dp2597
g3
F0.09799419869229864
sg4
F0.06592898090190014
s(dp2598
g3
F2.0923713438844302
sg4
F1.8845664448757644
s(dp2599
g3
F0.23031932575694558
sg4
F0.20415110330791753
stp2600
s(I10
I4
tp2601
((dp2602
g3
F0.01780618346603724
sg4
F0.8794429063808471
s(dp2603
g3
F0.08784179438643275
sg4
F0.05663544460123621
s(dp2604
g3
F0.18253679408487322
sg4
F0.8358116123200303
s(dp2605
g3
F0.08753084488360519
sg4
F0.05237755917480186
stp2606
s(I13
I57
tp2607
((dp2608
g3
F-0.008524604627800803
sg4
F0.9509512780825923
s(dp2609
g3
F0.09742885449654665
sg4
F0.06852352257068706
s(dp2610
g3
F2.210485567034937
sg4
F1.8457016130202868
s(dp2611
g3
F0.22132352256846688
sg4
F0.21023711274296875
stp2612
s(I11
I9
tp2613
((dp2614
g3
F0.020377682618764936
sg4
F0.8779013523843477
s(dp2615
g3
F0.0893742288293442
sg4
F0.05898769849421781
s(dp2616
g3
F0.42559052489522964
sg4
F0.9278841726030628
s(dp2617
g3
F0.10745439637767662
sg4
F0.07012239140959087
stp2618
s(I7
I71
tp2619
((dp2620
g3
F-0.010304144868493514
sg4
F0.9195469879878276
s(dp2621
g3
F0.0940848149601794
sg4
F0.06356985998690906
s(dp2622
g3
F2.487347883489074
sg4
F1.8161427039595486
s(dp2623
g3
F0.20713783218071424
sg4
F0.1918626078915835
stp2624
s(I12
I18
tp2625
((dp2626
g3
F-0.024100686516209446
sg4
F0.8702459241669588
s(dp2627
g3
F0.08755874784611506
sg4
F0.06023096975552816
s(dp2628
g3
F0.817052808616656
sg4
F1.1571118994561322
s(dp2629
g3
F0.16983916584816094
sg4
F0.12836553417133523
stp2630
s(I13
I19
tp2631
((dp2632
g3
F-0.007295524192731273
sg4
F0.9087197203773004
s(dp2633
g3
F0.09146813409118026
sg4
F0.06547020150336252
s(dp2634
g3
F1.0134505225708899
sg4
F1.3460522614627437
s(dp2635
g3
F0.18249862558981678
sg4
F0.13622393827275525
stp2636
s(I10
I72
tp2637
((dp2638
g3
F0.01801870409767914
sg4
F0.9278339101374715
s(dp2639
g3
F0.09408496902648028
sg4
F0.0648830631730361
s(dp2640
g3
F2.518042730256115
sg4
F1.8633838429585048
s(dp2641
g3
F0.2133696512457961
sg4
F0.18909172557192155
stp2642
s(I8
I88
tp2643
((dp2644
g3
F-0.01950503334484932
sg4
F0.8210573000407241
s(dp2645
g3
F0.08177298951074707
sg4
F0.05057564800531272
s(dp2646
g3
F1.1434462834941463
sg4
F2.747571049259626
s(dp2647
g3
F0.5763553086949076
sg4
F0.46438632800622104
stp2648
s(I12
I70
tp2649
((dp2650
g3
F-0.00015020949632982283
sg4
F0.9019794397955898
s(dp2651
g3
F0.09165760838975223
sg4
F0.06473347637649934
s(dp2652
g3
F2.5412666791806386
sg4
F1.875307922086126
s(dp2653
g3
F0.21792612551185453
sg4
F0.19728878409535078
stp2654
s(I10
I82
tp2655
((dp2656
g3
F-0.007318979186721641
sg4
F0.8981818237642079
s(dp2657
g3
F0.09146109690325938
sg4
F0.06203118580860911
s(dp2658
g3
F2.472156527726162
sg4
F2.0284151315282095
s(dp2659
g3
F0.24025611251289103
sg4
F0.2339041775472115
stp2660
s(I6
I20
tp2661
((dp2662
g3
F0.043363262338843134
sg4
F0.8773203145510449
s(dp2663
g3
F0.0893447022619947
sg4
F0.05644756585760924
s(dp2664
g3
F0.8059960157148085
sg4
F1.3033559486247626
s(dp2665
g3
F0.17594808306775778
sg4
F0.13256721158156848
stp2666
s(I8
I39
tp2667
((dp2668
g3
F0.0013711777966909366
sg4
F0.9217477181212409
s(dp2669
g3
F0.09260542186282583
sg4
F0.062437360251206164
s(dp2670
g3
F1.5088446416752617
sg4
F1.8096697472906187
s(dp2671
g3
F0.257351630656647
sg4
F0.19756158424663317
stp2672
s(I7
I17
tp2673
((dp2674
g3
F-0.04805427818141972
sg4
F0.8610518064186434
s(dp2675
g3
F0.08657201218762112
sg4
F0.05431516342769166
s(dp2676
g3
F0.6372538641731111
sg4
F1.0970460090156695
s(dp2677
g3
F0.1467336435336013
sg4
F0.11197301132765575
stp2678
s(I11
I82
tp2679
((dp2680
g3
F-0.02705003943013573
sg4
F0.8998230078689206
s(dp2681
g3
F0.09187875672984264
sg4
F0.062300728434424635
s(dp2682
g3
F2.496838628138627
sg4
F2.013645370219672
s(dp2683
g3
F0.23745071618028835
sg4
F0.23665727165575468
stp2684
s(I9
I38
tp2685
((dp2686
g3
F0.017319520115294917
sg4
F0.9073230063288658
s(dp2687
g3
F0.0923075664483562
sg4
F0.06243194000069324
s(dp2688
g3
F1.6579034760585318
sg4
F1.5801766479190937
s(dp2689
g3
F0.1787449949371005
sg4
F0.12227772324791752
stp2690
s(I6
I46
tp2691
((dp2692
g3
F-0.02242441316226884
sg4
F0.8851293146453653
s(dp2693
g3
F0.08883590852218254
sg4
F0.058096320613740704
s(dp2694
g3
F1.7312392644241
sg4
F1.689982206073053
s(dp2695
g3
F0.2225988896704416
sg4
F0.1615332769111324
stp2696
s(I10
I37
tp2697
((dp2698
g3
F0.04700181577706086
sg4
F0.8788286893828513
s(dp2699
g3
F0.08798054856870363
sg4
F0.05824106586801853
s(dp2700
g3
F1.4386172406033988
sg4
F1.786176859245424
s(dp2701
g3
F0.26652184479594965
sg4
F0.19113133443926422
stp2702
s(I8
I13
tp2703
((dp2704
g3
F0.04842805120814786
sg4
F0.8674703502531691
s(dp2705
g3
F0.08704588992826695
sg4
F0.056736595162575953
s(dp2706
g3
F0.12083606878600373
sg4
F1.5419254557791138
s(dp2707
g3
F0.26453716653407255
sg4
F0.25669249543344874
stp2708
s(I7
I47
tp2709
((dp2710
g3
F0.0682215368405592
sg4
F0.9177287888973831
s(dp2711
g3
F0.09280559649773151
sg4
F0.064234990956969
s(dp2712
g3
F1.9081924285323817
sg4
F1.6902858515306847
s(dp2713
g3
F0.19499053039602288
sg4
F0.14747883978482756
stp2714
s(I13
I88
tp2715
((dp2716
g3
F-0.045335493112803715
sg4
F0.8322829033217
s(dp2717
g3
F0.08354443356281238
sg4
F0.04978137849203984
s(dp2718
g3
F1.1516775617499935
sg4
F2.655210879649308
s(dp2719
g3
F0.5082290394604811
sg4
F0.4189359097773593
stp2720
s(I11
I40
tp2721
((dp2722
g3
F-0.032298811827175866
sg4
F0.8811598279631916
s(dp2723
g3
F0.09000452383622226
sg4
F0.061058852298949584
s(dp2724
g3
F1.5716174202859254
sg4
F1.8072458548554144
s(dp2725
g3
F0.24680156621625504
sg4
F0.1936374388116473
stp2726
s(I9
I8
tp2727
((dp2728
g3
F0.01454956311668587
sg4
F0.889397853838645
s(dp2729
g3
F0.09012705760870754
sg4
F0.05905207718846006
s(dp2730
g3
F0.33541352679121905
sg4
F0.8628280193778335
s(dp2731
g3
F0.09269450755806219
sg4
F0.057415291453746686
stp2732
s(I6
I64
tp2733
((dp2734
g3
F-0.03587325922762319
sg4
F0.8848678865443553
s(dp2735
g3
F0.08788592454495475
sg4
F0.061061668762607935
s(dp2736
g3
F2.351536729021935
sg4
F1.8084216158152826
s(dp2737
g3
F0.21110168851532451
sg4
F0.1845909154242683
stp2738
s(I12
I51
tp2739
((dp2740
g3
F-0.0007966429945831521
sg4
F0.8965912599186692
s(dp2741
g3
F0.09121834029183618
sg4
F0.06263836596284467
s(dp2742
g3
F2.0823879935415275
sg4
F1.7942955711899962
s(dp2743
g3
F0.21863318231555962
sg4
F0.18814073400274556
stp2744
s(I10
I15
tp2745
((dp2746
g3
F-0.02049521448632763
sg4
F0.8765289952156387
s(dp2747
g3
F0.08861800040603796
sg4
F0.059250641375855506
s(dp2748
g3
F0.6887778605613235
sg4
F1.1368001099511256
s(dp2749
g3
F0.1513079332065963
sg4
F0.11132277481446362
stp2750
s(I8
I19
tp2751
((dp2752
g3
F0.011238256810923275
sg4
F0.9121443666943297
s(dp2753
g3
F0.09261540281475111
sg4
F0.06176777079979884
s(dp2754
g3
F0.6888936590432528
sg4
F1.5327890840951888
s(dp2755
g3
F0.18935931909163317
sg4
F0.20007763942178092
stp2756
s(I13
I50
tp2757
((dp2758
g3
F0.035685102044797024
sg4
F0.92619990795447
s(dp2759
g3
F0.09411030695159278
sg4
F0.0626673414331016
s(dp2760
g3
F2.0490785478088993
sg4
F1.7996091235672775
s(dp2761
g3
F0.22774068551336724
sg4
F0.1907397159515194
stp2762
s(I11
I14
tp2763
((dp2764
g3
F0.011839014110876622
sg4
F0.8996241697730623
s(dp2765
g3
F0.09069251713601695
sg4
F0.06509442260139897
s(dp2766
g3
F0.6053435124783968
sg4
F1.0253371977096628
s(dp2767
g3
F0.13515019687055296
sg4
F0.09409347209040164
stp2768
s(I9
I18
tp2769
((dp2770
g3
F-0.01772555803095688
sg4
F0.8800961054971734
s(dp2771
g3
F0.08917698538722829
sg4
F0.059469378614772805
s(dp2772
g3
F0.2904703455299822
sg4
F1.8177211987619861
s(dp2773
g3
F0.36027209616550215
sg4
F0.3517144452292018
stp2774
s(I12
I9
tp2775
((dp2776
g3
F0.02982648650758213
sg4
F0.8695447766780056
s(dp2777
g3
F0.08813051127724114
sg4
F0.05899674259552573
s(dp2778
g3
F0.3824692552462605
sg4
F0.9532338635836277
s(dp2779
g3
F0.10903516286901549
sg4
F0.07342286438636592
stp2780
s(I13
I12
tp2781
((dp2782
g3
F0.008010889291775847
sg4
F0.8946387951595093
s(dp2783
g3
F0.08940539824064175
sg4
F0.06357309692100188
s(dp2784
g3
F0.5442505122944512
sg4
F0.9695258934455435
s(dp2785
g3
F0.12153145518057817
sg4
F0.0766138189727038
stp2786
s(I9
I69
tp2787
((dp2788
g3
F0.04376368166160294
sg4
F0.8560045851959326
s(dp2789
g3
F0.08540698443915279
sg4
F0.05632337272200699
s(dp2790
g3
F2.518207126765707
sg4
F1.9089442651976798
s(dp2791
g3
F0.22049609727466857
sg4
F0.2109884249209797
stp2792
s(I6
I15
tp2793
((dp2794
g3
F0.07663154734194455
sg4
F0.8203580094470104
s(dp2795
g3
F0.08127736774039213
sg4
F0.04964416819644363
s(dp2796
g3
F0.2301085654170607
sg4
F1.382769701591302
s(dp2797
g3
F0.1843121906271259
sg4
F0.15607024001044922
stp2798
s(I8
I46
tp2799
((dp2800
g3
F0.08102438288742264
sg4
F0.9182440384747316
s(dp2801
g3
F0.09325359313850706
sg4
F0.06463140835672554
s(dp2802
g3
F1.7790434600498362
sg4
F1.840768697816328
s(dp2803
g3
F0.24315748709181273
sg4
F0.18760388779462234
stp2804
s(I7
I14
tp2805
((dp2806
g3
F-0.018996562749740042
sg4
F0.8897343624829983
s(dp2807
g3
F0.09062716986749297
sg4
F0.05898146105119373
s(dp2808
g3
F0.5225783768220458
sg4
F1.0163770431932853
s(dp2809
g3
F0.1293126594348193
sg4
F0.08674863126180021
stp2810
s(I11
I75
tp2811
((dp2812
g3
F0.04864160527422157
sg4
F0.9048887929692595
s(dp2813
g3
F0.08973232735991682
sg4
F0.060182457818213186
s(dp2814
g3
F2.5544962539446283
sg4
F1.8908698097307344
s(dp2815
g3
F0.21748713069797954
sg4
F0.1912669641418706
stp2816
s(I9
I47
tp2817
((dp2818
g3
F-0.0029486876547287766
sg4
F0.9047921858943021
s(dp2819
g3
F0.09159920479689726
sg4
F0.06398608890359658
s(dp2820
g3
F1.8774711047869346
sg4
F1.8329807337864341
s(dp2821
g3
F0.24099836893251458
sg4
F0.1904568303107116
stp2822
s(I6
I33
tp2823
((dp2824
g3
F0.02367918981183581
sg4
F0.9074958232649617
s(dp2825
g3
F0.09245638603419093
sg4
F0.0639077347046228
s(dp2826
g3
F0.9704749597950879
sg4
F1.681858781323086
s(dp2827
g3
F0.2692575242367117
sg4
F0.17467214685588106
stp2828
s(I10
I44
tp2829
((dp2830
g3
F-0.06429454990589911
sg4
F0.925887928739384
s(dp2831
g3
F0.09299489763154678
sg4
F0.06488457627412525
s(dp2832
g3
F1.8102130418442153
sg4
F1.7599260248241237
s(dp2833
g3
F0.2130941906126036
sg4
F0.16680772783629194
stp2834
s(I8
I52
tp2835
((dp2836
g3
F-0.005628744249634443
sg4
F0.9249466853589973
s(dp2837
g3
F0.09438320164317138
sg4
F0.06240140834209296
s(dp2838
g3
F2.0831629081912038
sg4
F1.8177248397723809
s(dp2839
g3
F0.2283378089279522
sg4
F0.18031876199413788
stp2840
s(I7
I36
tp2841
((dp2842
g3
F0.0531269010636779
sg4
F0.8806613762037778
s(dp2843
g3
F0.08846118983107276
sg4
F0.058957953211697334
s(dp2844
g3
F1.2355717666133446
sg4
F1.7315044010128695
s(dp2845
g3
F0.2605742589030078
sg4
F0.17876711503497766
stp2846
s(I13
I81
tp2847
((dp2848
g3
F-0.0179911911815126
sg4
F0.8770305485468965
s(dp2849
g3
F0.0884116916503469
sg4
F0.05826093239610208
s(dp2850
g3
F2.541752976041104
sg4
F1.9720586819483352
s(dp2851
g3
F0.2306990296123954
sg4
F0.22079757295447988
stp2852
s(I11
I33
tp2853
((dp2854
g3
F-0.0517329612060341
sg4
F0.9020253736060001
s(dp2855
g3
F0.09175314534385043
sg4
F0.06368456964341379
s(dp2856
g3
F1.2644935552198824
sg4
F1.7772776292852501
s(dp2857
g3
F0.2639110031558689
sg4
F0.18956476577048786
stp2858
s(I9
I49
tp2859
((dp2860
g3
F-0.08868196861185318
sg4
F0.8747740546450018
s(dp2861
g3
F0.08801127542193254
sg4
F0.05931840460529736
s(dp2862
g3
F1.9432451285036763
sg4
F1.8151158972173262
s(dp2863
g3
F0.23700709408057685
sg4
F0.18412801862608286
stp2864
s(I6
I59
tp2865
((dp2866
g3
F-0.03447112805051056
sg4
F0.9053282109979242
s(dp2867
g3
F0.09113599480238849
sg4
F0.06306149114409082
s(dp2868
g3
F2.2318952681468076
sg4
F1.806805826751622
s(dp2869
g3
F0.21527765102223562
sg4
F0.18892893309008707
stp2870
s(I12
I42
tp2871
((dp2872
g3
F-0.02915169732968781
sg4
F0.91734182779677
s(dp2873
g3
F0.09251153919569655
sg4
F0.06641393102510534
s(dp2874
g3
F1.6705706337486133
sg4
F1.820360269794827
s(dp2875
g3
F0.24382324182362325
sg4
F0.19432378056531285
stp2876
s(I10
I54
tp2877
((dp2878
g3
F0.02313566766387365
sg4
F0.9066188770917691
s(dp2879
g3
F0.09274956560996017
sg4
F0.06365168675663002
s(dp2880
g3
F2.1621629423163244
sg4
F1.8340942570865775
s(dp2881
g3
F0.2315663779996846
sg4
F0.1908026752357146
stp2882
s(I8
I26
tp2883
((dp2884
g3
F-0.017098751716147387
sg4
F0.878535055766445
s(dp2885
g3
F0.08847688923319946
sg4
F0.059083271807961246
s(dp2886
g3
F0.7451241060780387
sg4
F1.6775200742643142
s(dp2887
g3
F0.2755726417850428
sg4
F0.18669597992954012
stp2888
s(I13
I43
tp2889
((dp2890
g3
F0.029135616711453594
sg4
F0.9185036313219401
s(dp2891
g3
F0.09314282738203983
sg4
F0.06351309393178822
s(dp2892
g3
F1.9043026255612858
sg4
F1.7948889381217619
s(dp2893
g3
F0.2114545361369018
sg4
F0.16662830591049893
stp2894
s(I11
I7
tp2895
((dp2896
g3
F-0.002867902757083707
sg4
F0.9011811696449543
s(dp2897
g3
F0.09043606503678009
sg4
F0.06068571258212824
s(dp2898
g3
F0.36202287163657676
sg4
F0.908239096141499
s(dp2899
g3
F0.09925034388360432
sg4
F0.06531155630932861
stp2900
s(I9
I27
tp2901
((dp2902
g3
F-0.008267232281146675
sg4
F0.8979294539597935
s(dp2903
g3
F0.091131953903617
sg4
F0.0627469085407012
s(dp2904
g3
F0.8755559510736475
sg4
F1.69310127687603
s(dp2905
g3
F0.2698604289920712
sg4
F0.18955788629670167
stp2906
s(I12
I0
tp2907
((dp2908
g3
F-0.004437656950448954
sg4
F0.8750055436883026
s(dp2909
g3
F0.08855918431839022
sg4
F0.05947861390972348
s(dp2910
g3
F-0.037052546351482474
sg4
F0.8897348211255152
s(dp2911
g3
F0.08926742346911032
sg4
F0.06053550851600259
stp2912
s(I10
I16
tp2913
((dp2914
g3
F0.010782981109865197
sg4
F0.927314861047712
s(dp2915
g3
F0.09529777465151462
sg4
F0.06623194832434831
s(dp2916
g3
F0.5426325907746672
sg4
F1.402679211871557
s(dp2917
g3
F0.18334779063759987
sg4
F0.14360019216402153
stp2918
s(I13
I5
tp2919
((dp2920
g3
F-0.005729391358147207
sg4
F0.9063098334982267
s(dp2921
g3
F0.09257753135897095
sg4
F0.0617016334955216
s(dp2922
g3
F0.2263772976511449
sg4
F0.8854952065919726
s(dp2923
g3
F0.09406070158453661
sg4
F0.05881223477002373
stp2924
s(I11
I29
tp2925
((dp2926
g3
F-0.0003763282594551054
sg4
F0.9211031613785268
s(dp2927
g3
F0.09292250695791304
sg4
F0.06516775509400408
s(dp2928
g3
F1.1515119718719564
sg4
F1.6607404028728592
s(dp2929
g3
F0.218122295371588
sg4
F0.15447409361741338
stp2930
s(I7
I83
tp2931
((dp2932
g3
F-0.03415622505210625
sg4
F0.8691063034586467
s(dp2933
g3
F0.08661661321889419
sg4
F0.05589455684060529
s(dp2934
g3
F2.4694261869891516
sg4
F2.0695292437920703
s(dp2935
g3
F0.2503982722345619
sg4
F0.24955993709442492
stp2936
s(I12
I30
tp2937
((dp2938
g3
F-0.01782136052844896
sg4
F0.9206296994622457
s(dp2939
g3
F0.09371565028199225
sg4
F0.06573611473507479
s(dp2940
g3
F1.3401658415737567
sg4
F1.5713118250353166
s(dp2941
g3
F0.1820535275263444
sg4
F0.13006884488780845
stp2942
s(I8
I70
tp2943
((dp2944
g3
F-0.00824953012905949
sg4
F0.9173279256345648
s(dp2945
g3
F0.09395498318671786
sg4
F0.0667106036160931
s(dp2946
g3
F2.5425013268361107
sg4
F1.8575820166361356
s(dp2947
g3
F0.21292473511955512
sg4
F0.20732351791194625
stp2948
s(I13
I31
tp2949
((dp2950
g3
F-0.018002476708286697
sg4
F0.9290159165725889
s(dp2951
g3
F0.0954557377332691
sg4
F0.06379699777845604
s(dp2952
g3
F1.121714843452653
sg4
F1.7318676997959235
s(dp2953
g3
F0.2550289856695088
sg4
F0.18061881565790427
stp2954
s(I9
I78
tp2955
((dp2956
g3
F0.014579725320961856
sg4
F0.9294287571300613
s(dp2957
g3
F0.09463163528291735
sg4
F0.06527041661025668
s(dp2958
g3
F2.5896358691094408
sg4
F1.9613435600034652
s(dp2959
g3
F0.22840124888277646
sg4
F0.2261598194810739
stp2960
s(I10
I68
tp2961
((dp2962
g3
F-0.04070986316368752
sg4
F0.9110519962268575
s(dp2963
g3
F0.09328683262193499
sg4
F0.0645455529982158
s(dp2964
g3
F2.504686841215059
sg4
F1.8613481930789062
s(dp2965
g3
F0.21212929204347653
sg4
F0.2051396797191788
stp2966
s(I6
I6
tp2967
((dp2968
g3
F-0.059491781731104254
sg4
F0.8081819052292691
s(dp2969
g3
F0.07954177561621645
sg4
F0.048399394932926554
s(dp2970
g3
F0.21134503016616657
sg4
F0.8569701407926316
s(dp2971
g3
F0.08904145043045453
sg4
F0.058021638388621455
stp2972
s(I7
I7
tp2973
((dp2974
g3
F0.03967252951694378
sg4
F0.867287610712137
s(dp2975
g3
F0.08612021663475483
sg4
F0.05486141623396523
s(dp2976
g3
F0.2935113526702944
sg4
F0.8752746686449687
s(dp2977
g3
F0.09245109251829708
sg4
F0.05713501571816104
stp2978
s(I11
I64
tp2979
((dp2980
g3
F0.0006881284081174943
sg4
F0.9189746191839198
s(dp2981
g3
F0.09295423545237991
sg4
F0.06619389868795039
s(dp2982
g3
F2.4178539625483064
sg4
F1.8553341804513301
s(dp2983
g3
F0.21666694193673597
sg4
F0.19361838014044508
stp2984
s(I12
I82
tp2985
((dp2986
g3
F-0.016826035056085376
sg4
F0.8941474008543402
s(dp2987
g3
F0.0905851354321508
sg4
F0.061350153278621145
s(dp2988
g3
F2.4591542805484714
sg4
F2.02221837001384
s(dp2989
g3
F0.23845475037220276
sg4
F0.23529520694557904
stp2990
s(I9
I80
tp2991
((dp2992
g3
F-0.005880052496221477
sg4
F0.8846936855113932
s(dp2993
g3
F0.09102808621338931
sg4
F0.059368172158072774
s(dp2994
g3
F2.541609864465442
sg4
F1.9523386393835214
s(dp2995
g3
F0.2253711586881868
sg4
F0.21249686602940365
stp2996
s(I6
I24
tp2997
((dp2998
g3
F-0.0015550142158932134
sg4
F0.9084285718433491
s(dp2999
g3
F0.09201217371590042
sg4
F0.06069736539072074
s(dp3000
g3
F0.558816867504778
sg4
F1.835983269362518
s(dp3001
g3
F0.31030917498531196
sg4
F0.2995674661147034
stp3002
s(I8
I59
tp3003
((dp3004
g3
F0.009191579166429431
sg4
F0.9078697200709911
s(dp3005
g3
F0.09200710801236667
sg4
F0.0626490004766106
s(dp3006
g3
F2.2781764012723764
sg4
F1.7857712817243763
s(dp3007
g3
F0.21043596639909845
sg4
F0.1807387914844616
stp3008
s(I7
I29
tp3009
((dp3010
g3
F-0.006433337985112031
sg4
F0.8731367099183677
s(dp3011
g3
F0.08750726406305342
sg4
F0.057376123634093
s(dp3012
g3
F0.8540193799429172
sg4
F1.6580807180811667
s(dp3013
g3
F0.26279801219502685
sg4
F0.16696870761243598
stp3014
s(I13
I74
tp3015
((dp3016
g3
F-0.006551597252544061
sg4
F0.9184501491014112
s(dp3017
g3
F0.09366326758810345
sg4
F0.06404630049676191
s(dp3018
g3
F2.5777793768079924
sg4
F1.8350089766762496
s(dp3019
g3
F0.2093488063779072
sg4
F0.20030652951914718
stp3020
s(I11
I38
tp3021
((dp3022
g3
F-0.02493110890044714
sg4
F0.9180802780371303
s(dp3023
g3
F0.0936949368654989
sg4
F0.06329509130297539
s(dp3024
g3
F1.5179576382559898
sg4
F1.783842771208593
s(dp3025
g3
F0.2515133420547848
sg4
F0.19469561310513706
stp3026
s(I9
I58
tp3027
((dp3028
g3
F0.020016497625144236
sg4
F0.9354476089591937
s(dp3029
g3
F0.09556088222362469
sg4
F0.06819327189223923
s(dp3030
g3
F2.251410530501022
sg4
F1.8230116522521747
s(dp3031
g3
F0.21558945252122919
sg4
F0.19391122823950657
stp3032
s(I6
I50
tp3033
((dp3034
g3
F0.053350577142825095
sg4
F0.8852777800117093
s(dp3035
g3
F0.08921675083400304
sg4
F0.05759661478497913
s(dp3036
g3
F1.8913882042051195
sg4
F1.7817650878035913
s(dp3037
g3
F0.22992389532805824
sg4
F0.1856840267467187
stp3038
s(I12
I33
tp3039
((dp3040
g3
F0.04370452868234209
sg4
F0.9168938404509899
s(dp3041
g3
F0.09390582881705734
sg4
F0.06648856707948986
s(dp3042
g3
F1.3366196821339917
sg4
F1.7241402021661667
s(dp3043
g3
F0.23102937940039703
sg4
F0.17874671368015949
stp3044
s(I10
I49
tp3045
((dp3046
g3
F-0.005065315583348884
sg4
F0.9164388528721006
s(dp3047
g3
F0.09397251036488008
sg4
F0.0656898134525194
s(dp3048
g3
F1.9847894736475764
sg4
F1.7711891749119093
s(dp3049
g3
F0.22365054865117662
sg4
F0.17191995630492563
stp3050
s(I8
I1
tp3051
((dp3052
g3
F0.008326250038397376
sg4
F0.9032522217793808
s(dp3053
g3
F0.09024954720168604
sg4
F0.060649110454735256
s(dp3054
g3
F0.06068258506263824
sg4
F0.8574760607640439
s(dp3055
g3
F0.08590709876925506
sg4
F0.053852246250202795
stp3056
s(I7
I59
tp3057
((dp3058
g3
F-0.05937826243955002
sg4
F0.8786405164355316
s(dp3059
g3
F0.08883745439307045
sg4
F0.05955022718723446
s(dp3060
g3
F2.2101258186064023
sg4
F1.8121386194151508
s(dp3061
g3
F0.21931667939709087
sg4
F0.1967514263501221
stp3062
s(I13
I36
tp3063
((dp3064
g3
F-0.04774060980958006
sg4
F0.943932039001929
s(dp3065
g3
F0.09687276038493409
sg4
F0.06748059612759683
s(dp3066
g3
F1.3871173952464102
sg4
F1.7963177137516737
s(dp3067
g3
F0.2584770521137465
sg4
F0.19230880438589493
stp3068
s(I11
I60
tp3069
((dp3070
g3
F0.01772924488931138
sg4
F0.922961031615214
s(dp3071
g3
F0.09359967495491206
sg4
F0.06298855227406946
s(dp3072
g3
F2.3440571168806654
sg4
F1.834393403490647
s(dp3073
g3
F0.21882497364135833
sg4
F0.1849725934317329
stp3074
s(I9
I28
tp3075
((dp3076
g3
F-0.007740833326767227
sg4
F0.9113189074649113
s(dp3077
g3
F0.09262551877383951
sg4
F0.06193379163265167
s(dp3078
g3
F1.362034752666701
sg4
F1.4015175034782505
s(dp3079
g3
F0.16043645800647832
sg4
F0.10203303181895496
stp3080
s(I6
I84
tp3081
((dp3082
g3
F-0.03294619725356518
sg4
F0.8875466330307437
s(dp3083
g3
F0.08972490166686703
sg4
F0.059029921785774764
s(dp3084
g3
F2.348667840859998
sg4
F2.115291630606535
s(dp3085
g3
F0.2574542206108519
sg4
F0.2518056989802362
stp3086
s(I12
I63
tp3087
((dp3088
g3
F-0.0239775037191704
sg4
F0.9161999252378128
s(dp3089
g3
F0.09265998199287906
sg4
F0.06423784940832189
s(dp3090
g3
F2.370196301946661
sg4
F1.8055302917506377
s(dp3091
g3
F0.20733531212965328
sg4
F0.19512084955225062
stp3092
s(I10
I27
tp3093
((dp3094
g3
F0.052574267301124245
sg4
F0.880689047684988
s(dp3095
g3
F0.08844672829876449
sg4
F0.061287683061685416
s(dp3096
g3
F0.9046564590733426
sg4
F1.6788558875920798
s(dp3097
g3
F0.2714204957593661
sg4
F0.177174985887945
stp3098
s(I13
I62
tp3099
((dp3100
g3
F0.00027004881131631464
sg4
F0.9477123382268461
s(dp3101
g3
F0.09702683945508173
sg4
F0.0673762937351971
s(dp3102
g3
F2.3289713341008573
sg4
F1.8609897703535447
s(dp3103
g3
F0.22319815382591757
sg4
F0.20791205678798685
stp3104
s(I11
I18
tp3105
((dp3106
g3
F0.05728354152109327
sg4
F0.863550600412873
s(dp3107
g3
F0.08678964912302578
sg4
F0.05635358739692353
s(dp3108
g3
F0.8082577486749061
sg4
F1.4398271545257013
s(dp3109
g3
F0.17893935742510803
sg4
F0.18723076319775211
stp3110
s(I7
I72
tp3111
((dp3112
g3
F0.028511288522277578
sg4
F0.9011225533681427
s(dp3113
g3
F0.09067936805524923
sg4
F0.06146595451246295
s(dp3114
g3
F2.482581968158012
sg4
F1.9440938419325478
s(dp3115
g3
F0.2258480486904213
sg4
F0.21047735838004478
stp3116
s(I12
I21
tp3117
((dp3118
g3
F-0.025835493919360686
sg4
F0.9349166996124532
s(dp3119
g3
F0.09544681462744292
sg4
F0.06526320905412125
s(dp3120
g3
F0.8313976034401671
sg4
F1.6148232048469418
s(dp3121
g3
F0.21232856195442662
sg4
F0.17106983917200924
stp3122
s(I8
I77
tp3123
((dp3124
g3
F0.008528699760871339
sg4
F0.8699337443929489
s(dp3125
g3
F0.08614097020454164
sg4
F0.0579204111658973
s(dp3126
g3
F2.5959534657452252
sg4
F1.9329298631447103
s(dp3127
g3
F0.221206502593837
sg4
F0.2118216311978005
stp3128
s(I13
I24
tp3129
((dp3130
g3
F0.010498202685908398
sg4
F0.9519795225465684
s(dp3131
g3
F0.09818526177594522
sg4
F0.06834520051277776
s(dp3132
g3
F0.9652089954184622
sg4
F1.580139179872555
s(dp3133
g3
F0.19618119127556655
sg4
F0.13545418277432775
stp3134
s(I10
I79
tp3135
((dp3136
g3
F0.05357090687615029
sg4
F0.8931948138037109
s(dp3137
g3
F0.09015713972020811
sg4
F0.06097057913069448
s(dp3138
g3
F2.5171065091751426
sg4
F1.9330884982464938
s(dp3139
g3
F0.2225314069087565
sg4
F0.22270592973133418
stp3140
s(I8
I83
tp3141
((dp3142
g3
F-0.03015170732083461
sg4
F0.9179413685152791
s(dp3143
g3
F0.09260403334949735
sg4
F0.0637762837687611
s(dp3144
g3
F2.389531172527669
sg4
F2.143876964157147
s(dp3145
g3
F0.26394585386571245
sg4
F0.2531502021774408
stp3146
s(I12
I73
tp3147
((dp3148
g3
F-0.000868197278523497
sg4
F0.9275840234815292
s(dp3149
g3
F0.0942288373987451
sg4
F0.06440492006534831
s(dp3150
g3
F2.5448978915648732
sg4
F1.9227139224890377
s(dp3151
g3
F0.22306299644208116
sg4
F0.21992343961008187
stp3152
s(I9
I89
tp3153
((dp3154
g3
F-0.02226888527120563
sg4
F0.7896738003061645
s(dp3155
g3
F0.0776516616173647
sg4
F0.04424885455312977
s(dp3156
g3
F-0.25448472587364845
sg4
F3.1099046954675282
s(dp3157
g3
F1.0287688246628603
sg4
F0.6004425318476931
stp3158
s(I6
I19
tp3159
((dp3160
g3
F-0.020593123535011526
sg4
F0.8479622524793319
s(dp3161
g3
F0.08419742561446913
sg4
F0.05276379703602707
s(dp3162
g3
F0.26934341488188274
sg4
F1.7569943647113888
s(dp3163
g3
F0.3055920346258289
sg4
F0.31651632984140465
stp3164
s(I8
I34
tp3165
((dp3166
g3
F0.021536296222797402
sg4
F0.8877092798547709
s(dp3167
g3
F0.09081023884497236
sg4
F0.05951993273207423
s(dp3168
g3
F1.1630214220532133
sg4
F1.8025857996300858
s(dp3169
g3
F0.27312460245654324
sg4
F0.19817949946391822
stp3170
s(I7
I26
tp3171
((dp3172
g3
F0.01766798554541804
sg4
F0.850658742031638
s(dp3173
g3
F0.08566171911180759
sg4
F0.05251853104800641
s(dp3174
g3
F0.7124627713631326
sg4
F1.6448817697680327
s(dp3175
g3
F0.2589494720955339
sg4
F0.17527255449582646
stp3176
s(I13
I67
tp3177
((dp3178
g3
F0.013361283993121642
sg4
F0.9050600472277248
s(dp3179
g3
F0.09223125339884597
sg4
F0.06295417789182889
s(dp3180
g3
F2.4880340205453075
sg4
F1.9033352798794312
s(dp3181
g3
F0.21969515893270963
sg4
F0.21605111322361537
stp3182
s(I9
I35
tp3183
((dp3184
g3
F0.005622852855986071
sg4
F0.8779508773252097
s(dp3185
g3
F0.08824965129671702
sg4
F0.05856970255658195
s(dp3186
g3
F1.3743277236162803
sg4
F1.7386652394052318
s(dp3187
g3
F0.2331416539541118
sg4
F0.1741748462409396
stp3188
s(I6
I53
tp3189
((dp3190
g3
F-0.032863017247079185
sg4
F0.8965343153960007
s(dp3191
g3
F0.09035165884140206
sg4
F0.06196719307334797
s(dp3192
g3
F2.031554489580251
sg4
F1.7544880775856297
s(dp3193
g3
F0.21485283649458586
sg4
F0.17738086348174997
stp3194
s(I10
I56
tp3195
((dp3196
g3
F0.03735298879578486
sg4
F0.9012182314696751
s(dp3197
g3
F0.0911153734621456
sg4
F0.06160778308459802
s(dp3198
g3
F2.2136472450565883
sg4
F1.836054700196546
s(dp3199
g3
F0.22109943823505818
sg4
F0.19349454685066614
stp3200
s(I8
I8
tp3201
((dp3202
g3
F-0.05394202053857233
sg4
F0.8785211150698425
s(dp3203
g3
F0.0887762515080941
sg4
F0.05926072492489726
s(dp3204
g3
F0.28477182032765413
sg4
F0.8901385229322966
s(dp3205
g3
F0.09461127200869535
sg4
F0.06424747726982538
stp3206
s(I7
I48
tp3207
((dp3208
g3
F0.017111577426969227
sg4
F0.8776282714640592
s(dp3209
g3
F0.08677426142016065
sg4
F0.05754017678689727
s(dp3210
g3
F1.8511027550081902
sg4
F1.8177864755936928
s(dp3211
g3
F0.23942443615177522
sg4
F0.18590867640581732
stp3212
s(I11
I53
tp3213
((dp3214
g3
F0.021086495357355295
sg4
F0.9326476010284612
s(dp3215
g3
F0.09576455099709164
sg4
F0.06446508328574851
s(dp3216
g3
F2.1747830390495113
sg4
F1.841014661003746
s(dp3217
g3
F0.21305338998830248
sg4
F0.18638448448913902
stp3218
s(I9
I5
tp3219
((dp3220
g3
F0.0028083654385078205
sg4
F0.8549933300627145
s(dp3221
g3
F0.08590106685002258
sg4
F0.05431809052725051
s(dp3222
g3
F0.30382612289810274
sg4
F0.8697824326674131
s(dp3223
g3
F0.08985482683163204
sg4
F0.05675505785401391
stp3224
s(I6
I79
tp3225
((dp3226
g3
F0.009359659685688415
sg4
F0.9154364582494874
s(dp3227
g3
F0.09297444332929078
sg4
F0.06450596809241727
s(dp3228
g3
F2.551619989698181
sg4
F1.9347670662621974
s(dp3229
g3
F0.2216343308158324
sg4
F0.2187347649421567
stp3230
s(I12
I54
tp3231
((dp3232
g3
F0.027011629681322757
sg4
F0.878783697060045
s(dp3233
g3
F0.08880352522111046
sg4
F0.05985804571633602
s(dp3234
g3
F2.1841682426309035
sg4
F1.832744933714837
s(dp3235
g3
F0.2224219809678596
sg4
F0.19604109528852687
stp3236
s(I10
I2
tp3237
((dp3238
g3
F0.01534775090675411
sg4
F0.9233905115609407
s(dp3239
g3
F0.09496378531807032
sg4
F0.06404312478039526
s(dp3240
g3
F0.05928246757284139
sg4
F0.8504698608017729
s(dp3241
g3
F0.08527674724208378
sg4
F0.05688537744079397
stp3242
s(I13
I55
tp3243
((dp3244
g3
F0.024048467630674253
sg4
F0.9176059044621925
s(dp3245
g3
F0.09326057289458212
sg4
F0.06516383949825455
s(dp3246
g3
F2.172026690387856
sg4
F1.825753831029781
s(dp3247
g3
F0.22106365305607056
sg4
F0.1827565436906481
stp3248
s(I11
I11
tp3249
((dp3250
g3
F-0.020461484136916064
sg4
F0.9088513944784721
s(dp3251
g3
F0.09202301410256758
sg4
F0.06317398613610703
s(dp3252
g3
F0.41491213226014034
sg4
F1.0808024401516347
s(dp3253
g3
F0.12871436081437282
sg4
F0.10157944676577241
stp3254
s(I7
I65
tp3255
((dp3256
g3
F-0.0028142080199071717
sg4
F0.9186214215856592
s(dp3257
g3
F0.09457747590409865
sg4
F0.06401872713304357
s(dp3258
g3
F2.439818625020921
sg4
F1.8219765199870357
s(dp3259
g3
F0.20696124012421713
sg4
F0.18334856963115087
stp3260
s(I12
I12
tp3261
((dp3262
g3
F-0.03581384967858925
sg4
F0.9013980807031259
s(dp3263
g3
F0.09117970100853307
sg4
F0.061418393014643524
s(dp3264
g3
F0.5157131949527116
sg4
F0.9856442992368576
s(dp3265
g3
F0.11717656614312455
sg4
F0.08990662227941398
stp3266
s(I13
I17
tp3267
((dp3268
g3
F-0.00042214474931179247
sg4
F0.8943310451817463
s(dp3269
g3
F0.0906171912121505
sg4
F0.06056531180807867
s(dp3270
g3
F0.7434838821156502
sg4
F1.3158835052633933
s(dp3271
g3
F0.19135091525929393
sg4
F0.1383053055474226
stp3272
s(I12
I64
tp3273
((dp3274
g3
F0.029324015070134823
sg4
F0.9445084145567624
s(dp3275
g3
F0.09752888173099417
sg4
F0.06717962306842307
s(dp3276
g3
F2.4384993846033947
sg4
F1.8220138629854399
s(dp3277
g3
F0.2053693598662103
sg4
F0.1942847738097141
stp3278
s(I9
I66
tp3279
((dp3280
g3
F-0.01952354059405015
sg4
F0.9149071523528227
s(dp3281
g3
F0.09334953931288326
sg4
F0.06386368969591844
s(dp3282
g3
F2.4613490785299565
sg4
F1.8353079505414236
s(dp3283
g3
F0.2121515754530674
sg4
F0.19382426563004962
stp3284
s(I10
I80
tp3285
((dp3286
g3
F0.015825388957546593
sg4
F0.8668739849969825
s(dp3287
g3
F0.08760234720336002
sg4
F0.0582361985004195
s(dp3288
g3
F2.5801979162737227
sg4
F1.9661714101715
s(dp3289
g3
F0.2313267370941221
sg4
F0.21277813857368455
stp3290
s(I6
I10
tp3291
((dp3292
g3
F-0.002477265862995348
sg4
F0.8693015558449994
s(dp3293
g3
F0.08682175081604687
sg4
F0.05505271050616711
s(dp3294
g3
F0.21289726823995814
sg4
F1.0019219180897068
s(dp3295
g3
F0.11490536480978775
sg4
F0.07328453442032762
stp3296
s(I8
I41
tp3297
((dp3298
g3
F-0.03240947735716537
sg4
F0.9059277549133221
s(dp3299
g3
F0.09319399880854629
sg4
F0.06258384548113194
s(dp3300
g3
F1.851371739563934
sg4
F1.5738955794389724
s(dp3301
g3
F0.17266817595866968
sg4
F0.11078059440253307
stp3302
s(I7
I19
tp3303
((dp3304
g3
F0.0012834978157625354
sg4
F0.885618597162489
s(dp3305
g3
F0.08910139030228298
sg4
F0.06017186656477935
s(dp3306
g3
F0.8050354794027128
sg4
F1.3063896825418728
s(dp3307
g3
F0.1733276754499934
sg4
F0.16123281985683313
stp3308
s(I11
I84
tp3309
((dp3310
g3
F-0.011951837499738938
sg4
F0.8833850056795233
s(dp3311
g3
F0.08904325077322606
sg4
F0.06016898433882473
s(dp3312
g3
F2.3157499426938917
sg4
F2.1655895213390672
s(dp3313
g3
F0.27468605255500855
sg4
F0.2677979841429582
stp3314
s(I9
I36
tp3315
((dp3316
g3
F0.022480347040595205
sg4
F0.9206073125283187
s(dp3317
g3
F0.09459162731307114
sg4
F0.06373129424565127
s(dp3318
g3
F1.3806371445149086
sg4
F1.7296908139133027
s(dp3319
g3
F0.23774685696796216
sg4
F0.1679353052765119
stp3320
s(I6
I44
tp3321
((dp3322
g3
F-0.05306117117271658
sg4
F0.9222881230257237
s(dp3323
g3
F0.09314340391431775
sg4
F0.06258080495476415
s(dp3324
g3
F1.7699892403366837
sg4
F1.5943083986016073
s(dp3325
g3
F0.18137762199697938
sg4
F0.12434853306092097
stp3326
s(I10
I35
tp3327
((dp3328
g3
F-0.016349649447233605
sg4
F0.909111420645623
s(dp3329
g3
F0.09210708074900975
sg4
F0.06402055298126136
s(dp3330
g3
F1.333942861058067
sg4
F1.7915510558274028
s(dp3331
g3
F0.2688557498158084
sg4
F0.19377792349193934
stp3332
s(I8
I15
tp3333
((dp3334
g3
F0.0339794213561857
sg4
F0.8555131843872167
s(dp3335
g3
F0.08559980714981064
sg4
F0.05692634946716757
s(dp3336
g3
F0.4549286826204093
sg4
F1.2254093819267622
s(dp3337
g3
F0.15354698752084828
sg4
F0.12387651024600499
stp3338
s(I7
I41
tp3339
((dp3340
g3
F-0.0006595099610771094
sg4
F0.909951336215238
s(dp3341
g3
F0.09297075156184886
sg4
F0.06224439672752308
s(dp3342
g3
F1.7159682135933125
sg4
F1.52495612252407
s(dp3343
g3
F0.16509835235562043
sg4
F0.1040749232912852
stp3344
s(I13
I86
tp3345
((dp3346
g3
F-0.0445787594174718
sg4
F0.8731599804911225
s(dp3347
g3
F0.0882871602455933
sg4
F0.05835751630666364
s(dp3348
g3
F2.0840005468026614
sg4
F2.2716863595023034
s(dp3349
g3
F0.29323189666664695
sg4
F0.2907385387266188
stp3350
s(I11
I42
tp3351
((dp3352
g3
F0.02701972998668456
sg4
F0.919824121229605
s(dp3353
g3
F0.09317690250100635
sg4
F0.06582818432004273
s(dp3354
g3
F1.781606586236384
sg4
F1.7453180075067223
s(dp3355
g3
F0.2086120347130851
sg4
F0.15828461236024804
stp3356
s(I9
I14
tp3357
((dp3358
g3
F-0.026768476881017467
sg4
F0.9036075256706186
s(dp3359
g3
F0.09217235125419226
sg4
F0.06167973498904583
s(dp3360
g3
F0.4769987879976263
sg4
F1.1230601870676626
s(dp3361
g3
F0.14886888705657086
sg4
F0.11511133788297245
stp3362
s(I6
I70
tp3363
((dp3364
g3
F0.0628475192481881
sg4
F0.8987628648714647
s(dp3365
g3
F0.0923324487861088
sg4
F0.061575715402893416
s(dp3366
g3
F2.5065284715817455
sg4
F1.836448144959141
s(dp3367
g3
F0.21081709492141476
sg4
F0.20429826312336918
stp3368
s(I12
I45
tp3369
((dp3370
g3
F-0.013748049150589026
sg4
F0.9439717533312838
s(dp3371
g3
F0.09732095760002807
sg4
F0.06714227762857972
s(dp3372
g3
F1.940697726452811
sg4
F1.7661888605609588
s(dp3373
g3
F0.2107511546435481
sg4
F0.17170272745939952
stp3374
s(I10
I13
tp3375
((dp3376
g3
F0.006831721589908524
sg4
F0.9157465319190478
s(dp3377
g3
F0.09292797820318854
sg4
F0.061811807263151775
s(dp3378
g3
F0.4096317355511143
sg4
F1.2672961523469182
s(dp3379
g3
F0.16120839525907438
sg4
F0.13029460002065552
stp3380
s(I8
I21
tp3381
((dp3382
g3
F-0.03186467406222038
sg4
F0.9011911990450617
s(dp3383
g3
F0.09127066991088006
sg4
F0.060481171001877665
s(dp3384
g3
F0.28165629382901103
sg4
F2.0291144361753943
s(dp3385
g3
F0.4412605539365334
sg4
F0.36109303455163577
stp3386
s(I13
I48
tp3387
((dp3388
g3
F0.004300774238926941
sg4
F0.9385426603277409
s(dp3389
g3
F0.0955965873437769
sg4
F0.06664087945070174
s(dp3390
g3
F1.9642230270209242
sg4
F1.8428719609169233
s(dp3391
g3
F0.2377285202150059
sg4
F0.1890873224277445
stp3392
s(I11
I0
tp3393
((dp3394
g3
F-0.004402154357345922
sg4
F0.8928347191822981
s(dp3395
g3
F0.09061631691376532
sg4
F0.06139730343829147
s(dp3396
g3
F-0.04170704939038972
sg4
F0.8723650814085939
s(dp3397
g3
F0.08754237526275394
sg4
F0.05795535073854102
stp3398
s(I9
I16
tp3399
((dp3400
g3
F-0.0029209178780496003
sg4
F0.8731355392131039
s(dp3401
g3
F0.08782313123871216
sg4
F0.057681837122295965
s(dp3402
g3
F0.30123472056437084
sg4
F1.694594082555346
s(dp3403
g3
F0.2836491919941897
sg4
F0.30782043159330075
stp3404
s(I6
I88
tp3405
((dp3406
g3
F0.03604918608378638
sg4
F0.8055060326049175
s(dp3407
g3
F0.07972885755369685
sg4
F0.04804131075425527
s(dp3408
g3
F1.0302249230479532
sg4
F2.764722487046434
s(dp3409
g3
F0.6272874600524043
sg4
F0.48546055000594457
stp3410
s(I12
I11
tp3411
((dp3412
g3
F0.004982275515120982
sg4
F0.8685254820464707
s(dp3413
g3
F0.08700977447925584
sg4
F0.056759008429989044
s(dp3414
g3
F0.46287036848542984
sg4
F0.9755911780090256
s(dp3415
g3
F0.11800206326628904
sg4
F0.07792146797533916
stp3416
s(I10
I23
tp3417
((dp3418
g3
F-0.003545126829868739
sg4
F0.8840161718929903
s(dp3419
g3
F0.09002819199367129
sg4
F0.05731063885020826
s(dp3420
g3
F0.62481954309684
sg4
F1.7333512422885362
s(dp3421
g3
F0.2993576798695705
sg4
F0.2066029787407916
stp3422
s(I13
I10
tp3423
((dp3424
g3
F-0.03268446394437097
sg4
F0.8890182867370819
s(dp3425
g3
F0.08833345918906871
sg4
F0.05974288975930092
s(dp3426
g3
F0.43229032488425023
sg4
F0.9284102777251669
s(dp3427
g3
F0.10852532619260025
sg4
F0.07224831815503008
stp3428
s(I7
I84
tp3429
((dp3430
g3
F-0.006355348050487986
sg4
F0.8702376137235541
s(dp3431
g3
F0.08820009223047365
sg4
F0.056841556218759026
s(dp3432
g3
F2.3177408784226152
sg4
F2.122417605818515
s(dp3433
g3
F0.26579477461503265
sg4
F0.2609344463478318
stp3434
s(I8
I65
tp3435
((dp3436
g3
F0.05607968914864303
sg4
F0.899871047968564
s(dp3437
g3
F0.09120933909125978
sg4
F0.06269947580383312
s(dp3438
g3
F2.4075640469445436
sg4
F1.889576352473649
s(dp3439
g3
F0.218734546722275
sg4
F0.20632920638436159
stp3440
s(I9
I75
tp3441
((dp3442
g3
F0.005499393132603725
sg4
F0.9520438812345103
s(dp3443
g3
F0.09676149889166591
sg4
F0.0675769138465151
s(dp3444
g3
F2.559305860228818
sg4
F1.880792703632165
s(dp3445
g3
F0.2149395765480937
sg4
F0.19534987324646136
stp3446
s(I6
I13
tp3447
((dp3448
g3
F0.016234971970064516
sg4
F0.8371691259272583
s(dp3449
g3
F0.08347364644928995
sg4
F0.05055361324179042
s(dp3450
g3
F0.42507827622295746
sg4
F0.9787938883546429
s(dp3451
g3
F0.11194664328574377
sg4
F0.08056082809907916
stp3452
s(I7
I8
tp3453
((dp3454
g3
F-0.03158864238873926
sg4
F0.8607064491679067
s(dp3455
g3
F0.08684288998422829
sg4
F0.05533481482038427
s(dp3456
g3
F0.36601620710975347
sg4
F0.8702904526656715
s(dp3457
g3
F0.09327175954898093
sg4
F0.05950839273576747
stp3458
s(I11
I77
tp3459
((dp3460
g3
F0.0037960443384528197
sg4
F0.8945728371740683
s(dp3461
g3
F0.08982185390723729
sg4
F0.06088250948314672
s(dp3462
g3
F2.536847393055739
sg4
F1.8865678635700243
s(dp3463
g3
F0.21861362838510612
sg4
F0.21595682312449627
stp3464
s(I12
I85
tp3465
((dp3466
g3
F0.002739801812599252
sg4
F0.905009073480624
s(dp3467
g3
F0.09285422103434315
sg4
F0.059921386763020335
s(dp3468
g3
F2.2646899959483284
sg4
F2.145793245427776
s(dp3469
g3
F0.2731294384049263
sg4
F0.2590436635823914
stp3470
s(I9
I45
tp3471
((dp3472
g3
F-0.014393966358701049
sg4
F0.9268503978786247
s(dp3473
g3
F0.09435432391013954
sg4
F0.06440771547990864
s(dp3474
g3
F1.8425262258782356
sg4
F1.7715380881543155
s(dp3475
g3
F0.2266322941195773
sg4
F0.18741970298705124
stp3476
s(I6
I39
tp3477
((dp3478
g3
F0.015257713498740832
sg4
F0.8409528815723644
s(dp3479
g3
F0.08212314423454636
sg4
F0.051975994843306395
s(dp3480
g3
F1.4519911316303111
sg4
F1.5414879930858165
s(dp3481
g3
F0.18477938844299957
sg4
F0.12099361365919048
stp3482
s(I10
I42
tp3483
((dp3484
g3
F-0.007593353537312497
sg4
F0.8920526054441748
s(dp3485
g3
F0.08940640787453374
sg4
F0.06030414863114053
s(dp3486
g3
F1.696006735626641
sg4
F1.7596438101043188
s(dp3487
g3
F0.22128193426654508
sg4
F0.1740322063705294
stp3488
s(I8
I54
tp3489
((dp3490
g3
F0.022857505537950296
sg4
F0.8747568329479729
s(dp3491
g3
F0.08755696243855904
sg4
F0.06118082074946507
s(dp3492
g3
F2.120218172693952
sg4
F1.8197001024010775
s(dp3493
g3
F0.22753033563995206
sg4
F0.1989125465682986
stp3494
s(I7
I38
tp3495
((dp3496
g3
F0.005352050897326599
sg4
F0.9120610512883816
s(dp3497
g3
F0.0928987924548017
sg4
F0.061976049326414595
s(dp3498
g3
F1.397219872575318
sg4
F1.719141382952834
s(dp3499
g3
F0.23226156478538162
sg4
F0.17379022243010012
stp3500
s(I13
I79
tp3501
((dp3502
g3
F-0.013719018493946411
sg4
F0.9317551990395752
s(dp3503
g3
F0.09566690403272582
sg4
F0.06383587187591855
s(dp3504
g3
F2.5272240752060893
sg4
F1.9198082973105144
s(dp3505
g3
F0.22144474396836644
sg4
F0.2169473737366282
stp3506
s(I11
I35
tp3507
((dp3508
g3
F-0.016186210772968224
sg4
F0.8812513244879868
s(dp3509
g3
F0.08796212660403258
sg4
F0.06036279732755184
s(dp3510
g3
F1.411229413807951
sg4
F1.7439574582013453
s(dp3511
g3
F0.23252249545980574
sg4
F0.17092276300736453
stp3512
s(I9
I55
tp3513
((dp3514
g3
F0.026254369273543077
sg4
F0.9160805860590213
s(dp3515
g3
F0.09386140971009416
sg4
F0.06356777778543493
s(dp3516
g3
F2.190596104839148
sg4
F1.8330146671670704
s(dp3517
g3
F0.22284540448069245
sg4
F0.19058261747211536
stp3518
s(I6
I57
tp3519
((dp3520
g3
F-0.050210131609713216
sg4
F0.9282245457918454
s(dp3521
g3
F0.09432383097816699
sg4
F0.06436631154741596
s(dp3522
g3
F2.1688237357933957
sg4
F1.7877098120841166
s(dp3523
g3
F0.21772424010643077
sg4
F0.18145137948194345
stp3524
s(I12
I36
tp3525
((dp3526
g3
F-0.02051852874515181
sg4
F0.9196967692196302
s(dp3527
g3
F0.0937279247114155
sg4
F0.06409715372074903
s(dp3528
g3
F1.3767045276111003
sg4
F1.8599699167904742
s(dp3529
g3
F0.27769479964354793
sg4
F0.20393214225295653
stp3530
s(I10
I52
tp3531
((dp3532
g3
F-0.05225151177074372
sg4
F0.8870391006436906
s(dp3533
g3
F0.08888955580218394
sg4
F0.0595090319065506
s(dp3534
g3
F2.0994171533300046
sg4
F1.8452879522542713
s(dp3535
g3
F0.23331068303870106
sg4
F0.1955573127810566
stp3536
s(I8
I28
tp3537
((dp3538
g3
F-0.007821502038042105
sg4
F0.9071868948131864
s(dp3539
g3
F0.09219702362063648
sg4
F0.06015072799017668
s(dp3540
g3
F0.8621733376132692
sg4
F1.695375166884093
s(dp3541
g3
F0.27401377929372495
sg4
F0.182393525286771
stp3542
s(I7
I60
tp3543
((dp3544
g3
F0.00019499259273891845
sg4
F0.9421817562299699
s(dp3545
g3
F0.09602219992949923
sg4
F0.06634172786477444
s(dp3546
g3
F2.2772855335146565
sg4
F1.8614673880053034
s(dp3547
g3
F0.22537294995115054
sg4
F0.19348170561892364
stp3548
s(I13
I41
tp3549
((dp3550
g3
F-0.003535264973189789
sg4
F0.8998197592240795
s(dp3551
g3
F0.0911874110414615
sg4
F0.06289609237419191
s(dp3552
g3
F1.7491552705133095
sg4
F1.7999796609029954
s(dp3553
g3
F0.21629852817145623
sg4
F0.1677415590711704
stp3554
s(I11
I57
tp3555
((dp3556
g3
F0.05280476696374503
sg4
F0.9346631502105864
s(dp3557
g3
F0.09515024353486218
sg4
F0.06622784283211136
s(dp3558
g3
F2.2874506490686914
sg4
F1.797375702241227
s(dp3559
g3
F0.21288029407851305
sg4
F0.18369553004617745
stp3560
s(I9
I25
tp3561
((dp3562
g3
F-0.005928888866184812
sg4
F0.8810558214517197
s(dp3563
g3
F0.09003321314829976
sg4
F0.06046535491358096
s(dp3564
g3
F0.941668234667375
sg4
F1.6564670654972449
s(dp3565
g3
F0.2179400024226752
sg4
F0.1692906992267873
stp3566
s(I6
I83
tp3567
((dp3568
g3
F-0.0163966784522962
sg4
F0.9208939030630306
s(dp3569
g3
F0.09358978341943103
sg4
F0.06281808811566209
s(dp3570
g3
F2.4122951438681035
sg4
F2.1137348429650022
s(dp3571
g3
F0.2479661335868062
sg4
F0.2404698628811841
stp3572
s(I12
I2
tp3573
((dp3574
g3
F-0.006653018862292304
sg4
F0.89945424763959
s(dp3575
g3
F0.09072378483768184
sg4
F0.0600576328348138
s(dp3576
g3
F0.09052878397172259
sg4
F0.8776647895357607
s(dp3577
g3
F0.09018166859272703
sg4
F0.05709248217564811
stp3578
s(I10
I30
tp3579
((dp3580
g3
F-0.00418965314142683
sg4
F0.8984196572258963
s(dp3581
g3
F0.09101761585786178
sg4
F0.06110657027387295
s(dp3582
g3
F1.1085721930273178
sg4
F1.7075208578441798
s(dp3583
g3
F0.2615410197036657
sg4
F0.1801971243781949
stp3584
s(I13
I3
tp3585
((dp3586
g3
F-0.03647651208489433
sg4
F0.8448297019710005
s(dp3587
g3
F0.08494187297208888
sg4
F0.05840140278434386
s(dp3588
g3
F0.15755350670881452
sg4
F0.8868877572019136
s(dp3589
g3
F0.09073914943517658
sg4
F0.060974361645924624
stp3590
s(I11
I31
tp3591
((dp3592
g3
F0.03634330017213472
sg4
F0.8993952321796758
s(dp3593
g3
F0.091563283817372
sg4
F0.060749802291536426
s(dp3594
g3
F1.2048679627741712
sg4
F1.7446513142696234
s(dp3595
g3
F0.2527128722637466
sg4
F0.17455459385959537
stp3596
s(I7
I77
tp3597
((dp3598
g3
F-0.006511708693793028
sg4
F0.8959715740307326
s(dp3599
g3
F0.09027285052166367
sg4
F0.059928070000818345
s(dp3600
g3
F2.5669757130523676
sg4
F1.9212647428336447
s(dp3601
g3
F0.23026124363957434
sg4
F0.2067938138055727
stp3602
s(I12
I24
tp3603
((dp3604
g3
F0.03443530412611917
sg4
F0.922471959879603
s(dp3605
g3
F0.09357710028950761
sg4
F0.06520107524636243
s(dp3606
g3
F1.1223856808688835
sg4
F1.4258789044757365
s(dp3607
g3
F0.16131002500158442
sg4
F0.11648523340716876
stp3608
s(I8
I72
tp3609
((dp3610
g3
F-0.011561462024969438
sg4
F0.9259125964949594
s(dp3611
g3
F0.09386045019186834
sg4
F0.06295153924057206
s(dp3612
g3
F2.540632736174551
sg4
F1.9081094970196806
s(dp3613
g3
F0.21959267288028017
sg4
F0.19829614549896535
stp3614
s(I13
I29
tp3615
((dp3616
g3
F0.012380945617705086
sg4
F0.9562228881566956
s(dp3617
g3
F0.09794197350669248
sg4
F0.06744854121584626
s(dp3618
g3
F1.4279294285743744
sg4
F1.533788162939462
s(dp3619
g3
F0.17095943626580778
sg4
F0.1150813058465191
stp3620
s(I9
I76
tp3621
((dp3622
g3
F-0.007314251593598997
sg4
F0.9205634000211164
s(dp3623
g3
F0.09432278312681375
sg4
F0.06337714997686872
s(dp3624
g3
F2.5978425633863464
sg4
F1.8934076024144997
s(dp3625
g3
F0.21962443183382674
sg4
F0.1957085608717567
stp3626
s(I10
I66
tp3627
((dp3628
g3
F-0.011355455318790009
sg4
F0.8820795441052148
s(dp3629
g3
F0.089361811827812
sg4
F0.05958253640766281
s(dp3630
g3
F2.481137733571982
sg4
F1.7991309100309767
s(dp3631
g3
F0.20194039562423383
sg4
F0.17762070822878262
stp3632
s(I6
I4
tp3633
((dp3634
g3
F0.05429466291235796
sg4
F0.8218857177916801
s(dp3635
g3
F0.08076079277208553
sg4
F0.049080532405141764
s(dp3636
g3
F0.1715929385256456
sg4
F0.8149373224432072
s(dp3637
g3
F0.08387032261066096
sg4
F0.05037154563277868
stp3638
s(I7
I1
tp3639
((dp3640
g3
F-0.024171126383585095
sg4
F0.8810119220789079
s(dp3641
g3
F0.08817344123893578
sg4
F0.05869744756511419
s(dp3642
g3
F0.04921680928616401
sg4
F0.8612509672966795
s(dp3643
g3
F0.08655266875041295
sg4
F0.055470673976091955
stp3644
s(I11
I66
tp3645
((dp3646
g3
F0.01840227434331143
sg4
F0.891468519443092
s(dp3647
g3
F0.09087086564182217
sg4
F0.06144002893873901
s(dp3648
g3
F2.4510545226964573
sg4
F1.830438110038147
s(dp3649
g3
F0.2141995848002345
sg4
F0.1875408802413545
stp3650
s(I12
I76
tp3651
((dp3652
g3
F0.008898092165750437
sg4
F0.9199658742167633
s(dp3653
g3
F0.0942877450669431
sg4
F0.06475661826161072
s(dp3654
g3
F2.5658063303260548
sg4
F1.8892141838075316
s(dp3655
g3
F0.21659684970032878
sg4
F0.21040886123152025
stp3656
s(I9
I86
tp3657
((dp3658
g3
F3.0133393342346437e-05
sg4
F0.8531284206243432
s(dp3659
g3
F0.08566199410717762
sg4
F0.05553907463845659
s(dp3660
g3
F2.0208302603035486
sg4
F2.2844574731095832
s(dp3661
g3
F0.32254779654285315
sg4
F0.3055664631634347
stp3662
s(I6
I30
tp3663
((dp3664
g3
F0.056986377717606285
sg4
F0.870705535400778
s(dp3665
g3
F0.08752742977864236
sg4
F0.05632876835060496
s(dp3666
g3
F0.7619731127453284
sg4
F1.6941444710626505
s(dp3667
g3
F0.28572960321439633
sg4
F0.18805255713122115
stp3668
s(I8
I61
tp3669
((dp3670
g3
F0.003495762258944657
sg4
F0.9064010351095089
s(dp3671
g3
F0.09247796442978573
sg4
F0.06404765480049446
s(dp3672
g3
F2.3239707291412337
sg4
F1.7920613690411582
s(dp3673
g3
F0.20944039294960737
sg4
F0.18327131417772358
stp3674
s(I7
I31
tp3675
((dp3676
g3
F-0.04584129051614971
sg4
F0.8698499779300674
s(dp3677
g3
F0.08789258563125835
sg4
F0.0584132814857935
s(dp3678
g3
F0.9792172647937651
sg4
F1.5863359171000664
s(dp3679
g3
F0.24134173660784386
sg4
F0.15200878507286364
stp3680
s(I13
I72
tp3681
((dp3682
g3
F0.044771035330624986
sg4
F0.9367547828446263
s(dp3683
g3
F0.0958571767898122
sg4
F0.06684026720320568
s(dp3684
g3
F2.55021226427421
sg4
F1.8829220222979797
s(dp3685
g3
F0.21659203045552955
sg4
F0.2073256316186627
stp3686
s(I11
I88
tp3687
((dp3688
g3
F0.028203550768438612
sg4
F0.8231181967429284
s(dp3689
g3
F0.081794723373535
sg4
F0.05095752719244817
s(dp3690
g3
F1.8885870874108863
sg4
F2.1259560562024418
s(dp3691
g3
F0.24891373044563303
sg4
F0.22306074905579987
stp3692
s(I9
I56
tp3693
((dp3694
g3
F0.002948743574517465
sg4
F0.9182016537735068
s(dp3695
g3
F0.09251001260680186
sg4
F0.06537992930811726
s(dp3696
g3
F2.1778225604805868
sg4
F1.8296272401653073
s(dp3697
g3
F0.2194251994601899
sg4
F0.19185817553783457
stp3698
s(I6
I48
tp3699
((dp3700
g3
F-0.03161349574135752
sg4
F0.8630985149377368
s(dp3701
g3
F0.0852612936476061
sg4
F0.05538489954371567
s(dp3702
g3
F1.789396247497776
sg4
F1.7430833960836476
s(dp3703
g3
F0.23089721199877444
sg4
F0.17975609081570143
stp3704
s(I12
I35
tp3705
((dp3706
g3
F0.011671712989134608
sg4
F0.9362114436063487
s(dp3707
g3
F0.09566682722710579
sg4
F0.06679863523924329
s(dp3708
g3
F1.4369823995211055
sg4
F1.7585219548079183
s(dp3709
g3
F0.23783561916214513
sg4
F0.17547676981512284
stp3710
s(I10
I63
tp3711
((dp3712
g3
F-0.0097369325277189
sg4
F0.9457018039534002
s(dp3713
g3
F0.09632362724487264
sg4
F0.06771768311707349
s(dp3714
g3
F2.3289717116371422
sg4
F1.8520786382582788
s(dp3715
g3
F0.21481942948629085
sg4
F0.20102296979746115
stp3716
s(I8
I3
tp3717
((dp3718
g3
F-0.02907157273313654
sg4
F0.8463810313216493
s(dp3719
g3
F0.08534976386833454
sg4
F0.05560719869428227
s(dp3720
g3
F0.17321779716017138
sg4
F0.8749043712458939
s(dp3721
g3
F0.08998812378532639
sg4
F0.05954169795075537
stp3722
s(I7
I53
tp3723
((dp3724
g3
F-0.05909927288474903
sg4
F0.9174088362976792
s(dp3725
g3
F0.0935894390746056
sg4
F0.06303961079879011
s(dp3726
g3
F2.115901766157095
sg4
F1.8021643917760466
s(dp3727
g3
F0.21920117284323615
sg4
F0.18529158394890577
stp3728
s(I13
I34
tp3729
((dp3730
g3
F-0.005244454258943265
sg4
F0.9079163245228441
s(dp3731
g3
F0.09371778691397259
sg4
F0.06585451554926258
s(dp3732
g3
F1.2913275467851384
sg4
F1.8176249288360715
s(dp3733
g3
F0.26855184165917767
sg4
F0.20585493643047148
stp3734
s(I11
I62
tp3735
((dp3736
g3
F-0.021225841449183047
sg4
F0.9564057842210942
s(dp3737
g3
F0.09909983244583326
sg4
F0.06936416766949388
s(dp3738
g3
F2.4053227189064814
sg4
F1.9005525895081041
s(dp3739
g3
F0.2267515923846084
sg4
F0.19874694317460806
stp3740
s(I9
I2
tp3741
((dp3742
g3
F-0.012957676256052597
sg4
F0.8440686023417063
s(dp3743
g3
F0.08325607488008213
sg4
F0.053168443603962834
s(dp3744
g3
F0.1089487646165892
sg4
F0.7973215203669046
s(dp3745
g3
F0.07799724043001888
sg4
F0.049036261521064106
stp3746
s(I6
I74
tp3747
((dp3748
g3
F-0.037492382571230665
sg4
F0.9008077882323016
s(dp3749
g3
F0.09160126148544234
sg4
F0.05890337117871186
s(dp3750
g3
F2.549239671449794
sg4
F1.8926576029774562
s(dp3751
g3
F0.21844725859789227
sg4
F0.2076809380097031
stp3752
s(I12
I57
tp3753
((dp3754
g3
F-0.026678131974307018
sg4
F0.9034084610933543
s(dp3755
g3
F0.09105110876418915
sg4
F0.061530635991384086
s(dp3756
g3
F2.3778410626657625
sg4
F1.6531770658080673
s(dp3757
g3
F0.18340328967586061
sg4
F0.1349974388482621
stp3758
s(I10
I25
tp3759
((dp3760
g3
F-0.026565441891416186
sg4
F0.8899093952334707
s(dp3761
g3
F0.0906025691791073
sg4
F0.06117406645076351
s(dp3762
g3
F1.0029688223332487
sg4
F1.5603378012718725
s(dp3763
g3
F0.1983947769823755
sg4
F0.14215972438326385
stp3764
s(I13
I60
tp3765
((dp3766
g3
F-0.002247911190481622
sg4
F0.963813501764595
s(dp3767
g3
F0.09967599844349823
sg4
F0.07137679836949856
s(dp3768
g3
F2.3074114902336214
sg4
F1.8841081358738407
s(dp3769
g3
F0.22756955746394847
sg4
F0.20772477190220595
stp3770
s(I11
I20
tp3771
((dp3772
g3
F-0.016728916670503136
sg4
F0.9101660546168362
s(dp3773
g3
F0.09250720123450612
sg4
F0.06367145312397293
s(dp3774
g3
F0.495359976934574
sg4
F1.7518576609323757
s(dp3775
g3
F0.3311167138903094
sg4
F0.24059655775369437
stp3776
s(I7
I74
tp3777
((dp3778
g3
F-0.01231365021517905
sg4
F0.9245057278588892
s(dp3779
g3
F0.09471022550256825
sg4
F0.06432643934635268
s(dp3780
g3
F2.5501060259628066
sg4
F1.8813726950376184
s(dp3781
g3
F0.21751758784374564
sg4
F0.20535762175756367
stp3782
s(I12
I23
tp3783
((dp3784
g3
F-0.03824578160379466
sg4
F0.904276630390694
s(dp3785
g3
F0.09178254851995882
sg4
F0.06090823475562124
s(dp3786
g3
F0.8725479855128269
sg4
F1.6063530215439794
s(dp3787
g3
F0.21514957177784133
sg4
F0.16263743699671884
stp3788
s(I8
I79
tp3789
((dp3790
g3
F0.0038760501516434953
sg4
F0.8524218573087526
s(dp3791
g3
F0.08392231982731341
sg4
F0.05760737942740335
s(dp3792
g3
F2.5635401371711506
sg4
F1.9702185029641888
s(dp3793
g3
F0.2275061529665916
sg4
F0.2244810840070458
stp3794
s(I13
I22
tp3795
((dp3796
g3
F0.06712884298449051
sg4
F0.8798534319116783
s(dp3797
g3
F0.08702348526763798
sg4
F0.060084014500855376
s(dp3798
g3
F1.039516504759888
sg4
F1.493839322692783
s(dp3799
g3
F0.17228665390891917
sg4
F0.1325875390647383
stp3800
s(I10
I77
tp3801
((dp3802
g3
F-0.003417050680970979
sg4
F0.9059954551289132
s(dp3803
g3
F0.09159014679658706
sg4
F0.06186244098316418
s(dp3804
g3
F2.5686959550991197
sg4
F1.9513082501766918
s(dp3805
g3
F0.23062935974620857
sg4
F0.21367576880319827
stp3806
s(I8
I85
tp3807
((dp3808
g3
F-0.03629024200398401
sg4
F0.8693635579816807
s(dp3809
g3
F0.08818481655726285
sg4
F0.05604794240493399
s(dp3810
g3
F2.2047448057428216
sg4
F2.187740051616329
s(dp3811
g3
F0.2799995076113768
sg4
F0.28049562164695574
stp3812
s(I12
I75
tp3813
((dp3814
g3
F-0.010611713215970542
sg4
F0.9127589262802673
s(dp3815
g3
F0.09173442960433376
sg4
F0.061567731963265704
s(dp3816
g3
F2.540090278130412
sg4
F1.9141258031223185
s(dp3817
g3
F0.22309580557482356
sg4
F0.2050209644557539
stp3818
s(I10
I87
tp3819
((dp3820
g3
F-0.03749811753409227
sg4
F0.8624769408452798
s(dp3821
g3
F0.08753326955717505
sg4
F0.05375189656059676
s(dp3822
g3
F1.5693510347978594
sg4
F2.5903200948294565
s(dp3823
g3
F0.45635637422357767
sg4
F0.3833365327872962
stp3824
s(I6
I17
tp3825
((dp3826
g3
F0.012606569996819639
sg4
F0.8048983360810853
s(dp3827
g3
F0.07873094314938411
sg4
F0.04780810950848219
s(dp3828
g3
F0.21011060776638857
sg4
F1.5738206232335317
s(dp3829
g3
F0.24352540869995354
sg4
F0.2469724415691148
stp3830
s(I8
I36
tp3831
((dp3832
g3
F-0.08632958672738011
sg4
F0.84884742703746
s(dp3833
g3
F0.08434707022311444
sg4
F0.05356949172905451
s(dp3834
g3
F1.307936850520027
sg4
F1.7840637410933142
s(dp3835
g3
F0.26600195929344306
sg4
F0.19238149825764272
stp3836
s(I7
I20
tp3837
((dp3838
g3
F0.023000468294955834
sg4
F0.8926045862137622
s(dp3839
g3
F0.09102402270670301
sg4
F0.05850779936182621
s(dp3840
g3
F0.278626172407785
sg4
F1.803390284860567
s(dp3841
g3
F0.3461342328427863
sg4
F0.2884728514034737
stp3842
s(I13
I65
tp3843
((dp3844
g3
F-0.06395543323151787
sg4
F0.8986344544435104
s(dp3845
g3
F0.09102988883702046
sg4
F0.06360710759821497
s(dp3846
g3
F2.4286776783488326
sg4
F1.8533132945790416
s(dp3847
g3
F0.2155479856894562
sg4
F0.19938095677351542
stp3848
s(I11
I81
tp3849
((dp3850
g3
F0.04871700566790871
sg4
F0.8843285812242268
s(dp3851
g3
F0.08925837909125123
sg4
F0.0601706275872988
s(dp3852
g3
F2.4766431755853286
sg4
F2.0430866976620354
s(dp3853
g3
F0.24687436821973852
sg4
F0.2315036005533928
stp3854
s(I9
I33
tp3855
((dp3856
g3
F-0.0029254734221708656
sg4
F0.913111632220441
s(dp3857
g3
F0.09380928537396538
sg4
F0.06291562110833043
s(dp3858
g3
F1.2300129765105083
sg4
F1.6787038771101515
s(dp3859
g3
F0.23200374785977695
sg4
F0.16235815051956504
stp3860
s(I6
I43
tp3861
((dp3862
g3
F0.01975457120775026
sg4
F0.91597213549544
s(dp3863
g3
F0.09271644724729694
sg4
F0.061748631610255234
s(dp3864
g3
F1.556879751079343
sg4
F1.7536059810903133
s(dp3865
g3
F0.24339212289570233
sg4
F0.17864953775979897
stp3866
s(I10
I38
tp3867
((dp3868
g3
F-0.04252237638495049
sg4
F0.908061630040951
s(dp3869
g3
F0.09307887132004489
sg4
F0.06299120838440042
s(dp3870
g3
F1.4687356470767465
sg4
F1.7565944382151355
s(dp3871
g3
F0.2508325984974391
sg4
F0.18008401778488725
stp3872
s(I8
I10
tp3873
((dp3874
g3
F0.04217113390143834
sg4
F0.8726251457488912
s(dp3875
g3
F0.0865105171991642
sg4
F0.05558712778022096
s(dp3876
g3
F0.4371869330024478
sg4
F0.930752766996139
s(dp3877
g3
F0.10830138813126122
sg4
F0.06818687145195457
stp3878
s(I7
I50
tp3879
((dp3880
g3
F0.00661618258172969
sg4
F0.9298523111455944
s(dp3881
g3
F0.0948546233280444
sg4
F0.06275733102303588
s(dp3882
g3
F1.9182344175542112
sg4
F1.7864603006885478
s(dp3883
g3
F0.22597627112051066
sg4
F0.18384318732688376
stp3884
s(I11
I55
tp3885
((dp3886
g3
F0.012191319210276053
sg4
F0.9335332700189309
s(dp3887
g3
F0.0953422737898908
sg4
F0.06904768324025234
s(dp3888
g3
F2.1961884562450766
sg4
F1.8424216285653698
s(dp3889
g3
F0.22037870839827622
sg4
F0.19175323003309275
stp3890
s(I9
I11
tp3891
((dp3892
g3
F0.055100024859904506
sg4
F0.8883291967882261
s(dp3893
g3
F0.08975812824567159
sg4
F0.0612858992247064
s(dp3894
g3
F0.45000878155044566
sg4
F0.9469709370348812
s(dp3895
g3
F0.10955416997454337
sg4
F0.07385195238365844
stp3896
s(I6
I77
tp3897
((dp3898
g3
F0.016665775618412315
sg4
F0.8869276977487235
s(dp3899
g3
F0.08920520049299874
sg4
F0.060448274933674495
s(dp3900
g3
F2.516342825104132
sg4
F1.9143757272135422
s(dp3901
g3
F0.22309019140124353
sg4
F0.21247526272422446
stp3902
s(I12
I48
tp3903
((dp3904
g3
F-0.0021200321512111486
sg4
F0.9174269366687144
s(dp3905
g3
F0.09297770961876228
sg4
F0.06210850286075437
s(dp3906
g3
F1.9489325578699912
sg4
F1.8515609618026667
s(dp3907
g3
F0.23626535444957297
sg4
F0.19502288112183364
stp3908
s(I10
I0
tp3909
((dp3910
g3
F-0.007531486002792742
sg4
F0.8620313758150839
s(dp3911
g3
F0.08642021788860604
sg4
F0.057350307195609185
s(dp3912
g3
F-0.030949664677459077
sg4
F0.8697557122146153
s(dp3913
g3
F0.08746157253222181
sg4
F0.05551559099027559
stp3914
s(I8
I16
tp3915
((dp3916
g3
F-0.008236805457488727
sg4
F0.8850122460494885
s(dp3917
g3
F0.08905468639975478
sg4
F0.05939421177223536
s(dp3918
g3
F0.4336679617236614
sg4
F1.5621274919107306
s(dp3919
g3
F0.2137095531238108
sg4
F0.22516928552009452
stp3920
s(I13
I53
tp3921
((dp3922
g3
F-6.465535876576389e-05
sg4
F0.8938120779394907
s(dp3923
g3
F0.09037737800737039
sg4
F0.060625245145640105
s(dp3924
g3
F2.1471341255652927
sg4
F1.802378316615508
s(dp3925
g3
F0.21605912504599112
sg4
F0.17981659342213652
stp3926
s(I11
I13
tp3927
((dp3928
g3
F0.02494808272340321
sg4
F0.8860568523871142
s(dp3929
g3
F0.08944709698484199
sg4
F0.06022050902700815
s(dp3930
g3
F0.560553516042241
sg4
F1.0550842866189096
s(dp3931
g3
F0.12735739978170002
sg4
F0.10533471098994829
stp3932
s(I7
I67
tp3933
((dp3934
g3
F-0.02976670384801139
sg4
F0.9033691582101084
s(dp3935
g3
F0.0921377338841815
sg4
F0.062017758176515225
s(dp3936
g3
F2.4938781456519963
sg4
F1.853335496864279
s(dp3937
g3
F0.21741896746819656
sg4
F0.19820559534049187
stp3938
s(I12
I14
tp3939
((dp3940
g3
F-0.05222394673710873
sg4
F0.8927267332430894
s(dp3941
g3
F0.09130200892745799
sg4
F0.05736674015421045
s(dp3942
g3
F0.6280177432341698
sg4
F1.107318536946291
s(dp3943
g3
F0.15647672739677854
sg4
F0.10553140586055265
stp3944
s(I13
I15
tp3945
((dp3946
g3
F0.04773999773641702
sg4
F0.9058404215033519
s(dp3947
g3
F0.09178313766780694
sg4
F0.0634389791137615
s(dp3948
g3
F0.7240351827262144
sg4
F1.099323728063574
s(dp3949
g3
F0.15714218241430544
sg4
F0.10161831639590746
stp3950
s(I7
I89
tp3951
((dp3952
g3
F0.037150252289327446
sg4
F0.8073957028032895
s(dp3953
g3
F0.07941116030483925
sg4
F0.04612564267743241
s(dp3954
g3
F-0.3224800661994758
sg4
F3.2230717268494162
s(dp3955
g3
F1.1249915297269184
sg4
F0.6659216958726819
stp3956
s(I12
I66
tp3957
((dp3958
g3
F-0.03263217470895907
sg4
F0.8966209546948631
s(dp3959
g3
F0.09055401340217395
sg4
F0.06521764339925512
s(dp3960
g3
F2.4982487171376278
sg4
F1.8866595333021678
s(dp3961
g3
F0.21964025053252456
sg4
F0.2035665534197859
stp3962
s(I9
I64
tp3963
((dp3964
g3
F-0.021849460722008884
sg4
F0.9413058704877815
s(dp3965
g3
F0.09520345088536653
sg4
F0.06648111617184244
s(dp3966
g3
F2.4200959498284376
sg4
F1.8102754972338106
s(dp3967
g3
F0.20862060152445538
sg4
F0.19213506020450655
stp3968
s(I6
I8
tp3969
((dp3970
g3
F-0.01374361991482187
sg4
F0.8459142619006639
s(dp3971
g3
F0.08495147992557978
sg4
F0.05219607749745059
s(dp3972
g3
F0.27263271168686876
sg4
F0.8921384849900684
s(dp3973
g3
F0.09633355579704594
sg4
F0.05911496368952107
stp3974
s(I8
I43
tp3975
((dp3976
g3
F0.02152587137821449
sg4
F0.900682447520798
s(dp3977
g3
F0.0899852223810042
sg4
F0.060388914393360804
s(dp3978
g3
F1.7076048781733855
sg4
F1.7691800146550203
s(dp3979
g3
F0.23874012953138157
sg4
F0.18240886445554438
stp3980
s(I7
I13
tp3981
((dp3982
g3
F-0.011423280793560586
sg4
F0.8963746470439414
s(dp3983
g3
F0.09119575744229547
sg4
F0.059735245514398294
s(dp3984
g3
F0.15063618149853397
sg4
F1.482428948950934
s(dp3985
g3
F0.23159289376747527
sg4
F0.23199084604566433
stp3986
s(I11
I86
tp3987
((dp3988
g3
F-0.0056625458024791575
sg4
F0.8846606435863787
s(dp3989
g3
F0.09084714045825593
sg4
F0.05662132584103219
s(dp3990
g3
F2.0792543335326528
sg4
F2.382082742462405
s(dp3991
g3
F0.3275491994454687
sg4
F0.3195744427076821
stp3992
s(I12
I88
tp3993
((dp3994
g3
F0.024790612839975745
sg4
F0.8282438128261225
s(dp3995
g3
F0.08243626238563972
sg4
F0.049599298356813315
s(dp3996
g3
F1.0709054142037768
sg4
F2.7223948945845935
s(dp3997
g3
F0.5831536600323955
sg4
F0.4232978362252908
stp3998
s(I9
I42
tp3999
((dp4000
g3
F0.0011892460638460722
sg4
F0.9409287592897999
s(dp4001
g3
F0.09593495748009068
sg4
F0.06924945307209346
s(dp4002
g3
F1.8457207219891218
sg4
F1.6391286337632516
s(dp4003
g3
F0.1852871355870387
sg4
F0.13523083610964393
stp4004
s(I6
I34
tp4005
((dp4006
g3
F-0.03931543371402335
sg4
F0.8836225992422775
s(dp4007
g3
F0.0904003118962795
sg4
F0.06000601036574038
s(dp4008
g3
F0.9243589047184788
sg4
F1.675078916544757
s(dp4009
g3
F0.2620728581342803
sg4
F0.17943294238867868
stp4010
s(I10
I33
tp4011
((dp4012
g3
F-0.024489070161715087
sg4
F0.9274818643993442
s(dp4013
g3
F0.09545236456013667
sg4
F0.06299158038950792
s(dp4014
g3
F1.6214332377029521
sg4
F1.481373585972603
s(dp4015
g3
F0.1718293964059323
sg4
F0.10244571449435158
stp4016
s(I8
I49
tp4017
((dp4018
g3
F-0.044169739177395306
sg4
F0.9097551702613103
s(dp4019
g3
F0.09297204073021786
sg4
F0.0637825724331944
s(dp4020
g3
F1.9395843845773917
sg4
F1.851010106552323
s(dp4021
g3
F0.23593075554427068
sg4
F0.1901379891831445
stp4022
s(I7
I43
tp4023
((dp4024
g3
F-0.027818852065962796
sg4
F0.9057386067305284
s(dp4025
g3
F0.09104709250402532
sg4
F0.05986581244564815
s(dp4026
g3
F1.7021244555791046
sg4
F1.7234456723690712
s(dp4027
g3
F0.21031677473414723
sg4
F0.1596449377082375
stp4028
s(I13
I84
tp4029
((dp4030
g3
F0.02698490179930113
sg4
F0.8741933458084187
s(dp4031
g3
F0.08759283673143636
sg4
F0.05658855385016942
s(dp4032
g3
F2.345835934874903
sg4
F2.1394286154223545
s(dp4033
g3
F0.26838608019518606
sg4
F0.26016421164936154
stp4034
s(I11
I44
tp4035
((dp4036
g3
F0.03308113582961436
sg4
F0.8814967278828656
s(dp4037
g3
F0.08721556455177243
sg4
F0.060049739237881095
s(dp4038
g3
F1.7678621538362531
sg4
F1.8374282836112825
s(dp4039
g3
F0.24502406023169576
sg4
F0.19711345368726763
stp4040
s(I9
I12
tp4041
((dp4042
g3
F-0.005617891639280392
sg4
F0.893281156444613
s(dp4043
g3
F0.08997696446463005
sg4
F0.06038310082726872
s(dp4044
g3
F0.3319434624461419
sg4
F1.1454448993084592
s(dp4045
g3
F0.14070100116623718
sg4
F0.12370543022534786
stp4046
s(I6
I68
tp4047
((dp4048
g3
F-0.03762208870344008
sg4
F0.8703062459131268
s(dp4049
g3
F0.0882699246116816
sg4
F0.05545059720116596
s(dp4050
g3
F2.446261302670158
sg4
F1.8115722840486719
s(dp4051
g3
F0.2136676063954741
sg4
F0.18453729619418735
stp4052
s(I12
I47
tp4053
((dp4054
g3
F-0.041654609705455314
sg4
F0.8885956370088187
s(dp4055
g3
F0.08889876292568999
sg4
F0.0605205128827252
s(dp4056
g3
F1.9183881318796963
sg4
F1.855876778578442
s(dp4057
g3
F0.2394522479203094
sg4
F0.19317158689879999
stp4058
s(I10
I11
tp4059
((dp4060
g3
F-0.006704330429007532
sg4
F0.8795716246792107
s(dp4061
g3
F0.08916204455093057
sg4
F0.05823312699950811
s(dp4062
g3
F0.5544645283464726
sg4
F0.9096804799258837
s(dp4063
g3
F0.10733347499872714
sg4
F0.06525059308941022
stp4064
s(I8
I23
tp4065
((dp4066
g3
F-0.012555207383778688
sg4
F0.8992032953484983
s(dp4067
g3
F0.09111276704971066
sg4
F0.06016258173414807
s(dp4068
g3
F0.5458121258474224
sg4
F1.9228478199330885
s(dp4069
g3
F0.37019970544095815
sg4
F0.31389606373714374
stp4070
s(I13
I46
tp4071
((dp4072
g3
F0.029729040725339217
sg4
F0.9140001300951519
s(dp4073
g3
F0.09216643855495205
sg4
F0.062187319157499976
s(dp4074
g3
F1.908608935054283
sg4
F1.794445791161412
s(dp4075
g3
F0.21383022568973775
sg4
F0.17998232071929987
stp4076
s(I11
I2
tp4077
((dp4078
g3
F-0.0154780006737818
sg4
F0.8860925262327359
s(dp4079
g3
F0.08919219240919918
sg4
F0.0581149425369728
s(dp4080
g3
F0.08572429476614829
sg4
F0.8703015681085973
s(dp4081
g3
F0.08876603773184094
sg4
F0.058101552713204996
stp4082
s(I9
I22
tp4083
((dp4084
g3
F0.0023280327845447424
sg4
F0.9009530711330738
s(dp4085
g3
F0.0905826317094266
sg4
F0.05984933276411686
s(dp4086
g3
F1.1120915026940743
sg4
F1.3483552989029035
s(dp4087
g3
F0.16269241547255264
sg4
F0.11554534080370726
stp4088
s(I12
I5
tp4089
((dp4090
g3
F0.046929195270407176
sg4
F0.8615571290292455
s(dp4091
g3
F0.08595722590637622
sg4
F0.05652428436968898
s(dp4092
g3
F0.18157788362400185
sg4
F0.9027356388272819
s(dp4093
g3
F0.09611666680519071
sg4
F0.0612444434513949
stp4094
s(I10
I21
tp4095
((dp4096
g3
F-0.04506470668748741
sg4
F0.8936090381287759
s(dp4097
g3
F0.0902668833952392
sg4
F0.05919634922506578
s(dp4098
g3
F1.0295861907016586
sg4
F1.34724849236262
s(dp4099
g3
F0.17535797620546734
sg4
F0.12489168379177795
stp4100
s(I13
I8
tp4101
((dp4102
g3
F0.019561096136352596
sg4
F0.8808073878022757
s(dp4103
g3
F0.08858667123664205
sg4
F0.05923911653527786
s(dp4104
g3
F0.3130498533135735
sg4
F0.9136450627646551
s(dp4105
g3
F0.1001536460241228
sg4
F0.06651670895268119
stp4106
s(I11
I24
tp4107
((dp4108
g3
F-0.02644571298883458
sg4
F0.9003642239591928
s(dp4109
g3
F0.09088776337337251
sg4
F0.06129998977022699
s(dp4110
g3
F0.8221050711150537
sg4
F1.6796017632115277
s(dp4111
g3
F0.24500150089862238
sg4
F0.175147045003198
stp4112
s(I7
I86
tp4113
((dp4114
g3
F0.015062139176421852
sg4
F0.8495345610253549
s(dp4115
g3
F0.08521624829906849
sg4
F0.05345895244447085
s(dp4116
g3
F2.1182684987382334
sg4
F2.297446686134988
s(dp4117
g3
F0.3263205707652568
sg4
F0.3004736243595878
stp4118
s(I8
I67
tp4119
((dp4120
g3
F0.04503721628649826
sg4
F0.8975482494552325
s(dp4121
g3
F0.09147714472079682
sg4
F0.06058643566620081
s(dp4122
g3
F2.455340205991507
sg4
F1.7990333354734682
s(dp4123
g3
F0.20993319171859448
sg4
F0.1903105363336164
stp4124
s(I9
I73
tp4125
((dp4126
g3
F-0.0317987588459272
sg4
F0.9577902503664331
s(dp4127
g3
F0.09818197403252416
sg4
F0.06912013881196122
s(dp4128
g3
F2.555964360871376
sg4
F1.9370441425643845
s(dp4129
g3
F0.22397798738812824
sg4
F0.21045376614211753
stp4130
s(I10
I89
tp4131
((dp4132
g3
F-0.06902715520503089
sg4
F0.8083920827470067
s(dp4133
g3
F0.07969413371542411
sg4
F0.047092884619649444
s(dp4134
g3
F-0.1794336771228675
sg4
F3.0921731061256272
s(dp4135
g3
F1.0431795048627235
sg4
F0.6708263991790171
stp4136
s(I6
I3
tp4137
((dp4138
g3
F0.028835891346850495
sg4
F0.8678303046960703
s(dp4139
g3
F0.08911510933319433
sg4
F0.058035271435009084
s(dp4140
g3
F0.20244186690080768
sg4
F0.8158525594344409
s(dp4141
g3
F0.08252246244522721
sg4
F0.050402480196611976
stp4142
s(I7
I10
tp4143
((dp4144
g3
F-0.024882676254462055
sg4
F0.8652628074340791
s(dp4145
g3
F0.08613979444398795
sg4
F0.05443570723217417
s(dp4146
g3
F0.3700933621132787
sg4
F0.8929985652309865
s(dp4147
g3
F0.09945844729801312
sg4
F0.06171025672458963
stp4148
s(I11
I79
tp4149
((dp4150
g3
F-0.020894103248753293
sg4
F0.90837906691564
s(dp4151
g3
F0.09221049238339912
sg4
F0.06244414305607476
s(dp4152
g3
F2.562259478675475
sg4
F1.9309115919874709
s(dp4153
g3
F0.22458578695815645
sg4
F0.20956517507533867
stp4154
s(I12
I87
tp4155
((dp4156
g3
F0.012537554496839576
sg4
F0.8585724113747226
s(dp4157
g3
F0.0867375420707544
sg4
F0.051922489732805
s(dp4158
g3
F1.6870551096222544
sg4
F2.5264543036883715
s(dp4159
g3
F0.4229526683528433
sg4
F0.35352249675060543
stp4160
s(I9
I83
tp4161
((dp4162
g3
F-0.02586260521276562
sg4
F0.9309907195653137
s(dp4163
g3
F0.09550210473828274
sg4
F0.06578562474863275
s(dp4164
g3
F2.464415066467861
sg4
F2.026157481414902
s(dp4165
g3
F0.2403851345279011
sg4
F0.22739206935930167
stp4166
s(I6
I37
tp4167
((dp4168
g3
F-0.033573480153833435
sg4
F0.8835912342937606
s(dp4169
g3
F0.08901875336213178
sg4
F0.05953464963618932
s(dp4170
g3
F1.2186207428408569
sg4
F1.6837208769892336
s(dp4171
g3
F0.24867531826698175
sg4
F0.16209243395940165
stp4172
s(I10
I40
tp4173
((dp4174
g3
F0.00048475391373825616
sg4
F0.8694018868278414
s(dp4175
g3
F0.08771700427390322
sg4
F0.05900787433177479
s(dp4176
g3
F1.5922217127957525
sg4
F1.8370977348136521
s(dp4177
g3
F0.2566731392254573
sg4
F0.19540256471322004
stp4178
s(I8
I56
tp4179
((dp4180
g3
F-0.012273215790850611
sg4
F0.9235440797451957
s(dp4181
g3
F0.09408762625254402
sg4
F0.06561697571710046
s(dp4182
g3
F2.1778609923924557
sg4
F1.8420572592661648
s(dp4183
g3
F0.2234846627643905
sg4
F0.1935910016822755
stp4184
s(I7
I32
tp4185
((dp4186
g3
F0.0059727379803069525
sg4
F0.8759696072350445
s(dp4187
g3
F0.08820293684215308
sg4
F0.05805565127393725
s(dp4188
g3
F1.0611418209060108
sg4
F1.6676249454114265
s(dp4189
g3
F0.24903372105393773
sg4
F0.17381358527477686
stp4190
s(I13
I77
tp4191
((dp4192
g3
F-0.03185380017005568
sg4
F0.909468768814554
s(dp4193
g3
F0.09184877382561202
sg4
F0.06288844880793792
s(dp4194
g3
F2.5240154530608345
sg4
F1.98147504029979
s(dp4195
g3
F0.23007980073118128
sg4
F0.22430547030102344
stp4196
s(I11
I37
tp4197
((dp4198
g3
F0.031282608180972726
sg4
F0.923318623262585
s(dp4199
g3
F0.09379922400913387
sg4
F0.06311591821059359
s(dp4200
g3
F1.4552408271471187
sg4
F1.7866670128602031
s(dp4201
g3
F0.24912648466989307
sg4
F0.18264171688669928
stp4202
s(I9
I53
tp4203
((dp4204
g3
F0.023661465462752718
sg4
F0.9203643195770462
s(dp4205
g3
F0.0939155449198315
sg4
F0.06334693954352733
s(dp4206
g3
F2.1150131708343807
sg4
F1.852362258068631
s(dp4207
g3
F0.22703218879297293
sg4
F0.19655418422124327
stp4208
s(I6
I63
tp4209
((dp4210
g3
F0.01661816027520291
sg4
F0.9281896345187745
s(dp4211
g3
F0.09436366614056896
sg4
F0.06298117051323787
s(dp4212
g3
F2.321691474936035
sg4
F1.8376810050952233
s(dp4213
g3
F0.21703521370355117
sg4
F0.19828135893685772
stp4214
s(I12
I38
tp4215
((dp4216
g3
F-0.030997645488982983
sg4
F0.9071568352064314
s(dp4217
g3
F0.09142881579183515
sg4
F0.06375304995039932
s(dp4218
g3
F1.531876608650684
sg4
F1.8264686400994878
s(dp4219
g3
F0.2630346263002574
sg4
F0.18740976683260058
stp4220
s(I10
I50
tp4221
((dp4222
g3
F0.02247433165372792
sg4
F0.8909974367099103
s(dp4223
g3
F0.08974128133481812
sg4
F0.057159274391525294
s(dp4224
g3
F1.9852795845520612
sg4
F1.8031630786346093
s(dp4225
g3
F0.22591901629862932
sg4
F0.19316705849622307
stp4226
s(I8
I30
tp4227
((dp4228
g3
F0.02526905665985657
sg4
F0.8638147994577116
s(dp4229
g3
F0.08615204064357423
sg4
F0.057415354003545804
s(dp4230
g3
F0.9795463481807978
sg4
F1.688343687869547
s(dp4231
g3
F0.26627373209143734
sg4
F0.17743645782448847
stp4232
s(I7
I62
tp4233
((dp4234
g3
F-0.05117849293361709
sg4
F0.8665856785324944
s(dp4235
g3
F0.0866459064754872
sg4
F0.059185782508572704
s(dp4236
g3
F2.348455216431055
sg4
F1.8579475283665374
s(dp4237
g3
F0.22164504147750397
sg4
F0.2004432979227323
stp4238
s(I13
I39
tp4239
((dp4240
g3
F-0.04462283930414257
sg4
F0.9234295056630898
s(dp4241
g3
F0.09291376414439034
sg4
F0.06495992815310714
s(dp4242
g3
F1.5759510369022638
sg4
F1.8220487746576783
s(dp4243
g3
F0.24841674495705757
sg4
F0.19330670275447248
stp4244
s(I11
I59
tp4245
((dp4246
g3
F0.022546245596898107
sg4
F0.8544551146901522
s(dp4247
g3
F0.08462798130721627
sg4
F0.056430611366315
s(dp4248
g3
F2.294729738123462
sg4
F1.822673056900931
s(dp4249
g3
F0.21558318597065207
sg4
F0.18415007306217324
stp4250
s(I9
I31
tp4251
((dp4252
g3
F0.008644279068982241
sg4
F0.9109930983934516
s(dp4253
g3
F0.0930849262070827
sg4
F0.06348370056246155
s(dp4254
g3
F1.0409922802352152
sg4
F1.7240747565113503
s(dp4255
g3
F0.26482303367950155
sg4
F0.17564592340229124
stp4256
s(I6
I81
tp4257
((dp4258
g3
F0.027479945952826546
sg4
F0.9028221432666753
s(dp4259
g3
F0.09095458913187981
sg4
F0.06027715938676914
s(dp4260
g3
F2.4818913627896277
sg4
F1.9783922643973024
s(dp4261
g3
F0.2379064085419984
sg4
F0.21510813858636346
stp4262
s(I12
I60
tp4263
((dp4264
g3
F0.028766386331600557
sg4
F0.9160535072974956
s(dp4265
g3
F0.0926545655518114
sg4
F0.06363070440493601
s(dp4266
g3
F2.3123616930926967
sg4
F1.8687126448525262
s(dp4267
g3
F0.22138620871918668
sg4
F0.20324730517053735
stp4268
s(I10
I28
tp4269
((dp4270
g3
F0.019720928546286265
sg4
F0.9112267186769728
s(dp4271
g3
F0.09264016267152192
sg4
F0.06078265176845121
s(dp4272
g3
F0.9807747483933209
sg4
F1.7156936069598694
s(dp4273
g3
F0.25939211120545147
sg4
F0.18308468685474555
stp4274
s(I13
I1
tp4275
((dp4276
g3
F-0.012087187017481904
sg4
F0.869157305409294
s(dp4277
g3
F0.08498253485341378
sg4
F0.05716400769357416
s(dp4278
g3
F0.03243564623065964
sg4
F0.9110421665212025
s(dp4279
g3
F0.09237830404404124
sg4
F0.06472312286928822
stp4280
s(I11
I17
tp4281
((dp4282
g3
F-0.017572933418985803
sg4
F0.9103818821107713
s(dp4283
g3
F0.09268767351199925
sg4
F0.06287748627191009
s(dp4284
g3
F0.8550987452775551
sg4
F1.21977324858733
s(dp4285
g3
F0.17945960665251637
sg4
F0.13984461594212505
stp4286
s(I7
I79
tp4287
((dp4288
g3
F-0.007857057915273913
sg4
F0.8883369650517843
s(dp4289
g3
F0.08913489321414692
sg4
F0.058196063420457356
s(dp4290
g3
F2.545251804392962
sg4
F1.9074647557981388
s(dp4291
g3
F0.22020182204097205
sg4
F0.20225134719922166
stp4292
s(I12
I26
tp4293
((dp4294
g3
F0.013427839436623845
sg4
F0.9075818900351658
s(dp4295
g3
F0.09272019905177298
sg4
F0.062465826745476905
s(dp4296
g3
F0.9690854051631899
sg4
F1.6907834859413673
s(dp4297
g3
F0.23920264604984187
sg4
F0.17457914525237284
stp4298
s(I8
I74
tp4299
((dp4300
g3
F-0.024906844918895166
sg4
F0.902742257331026
s(dp4301
g3
F0.09181756797424134
sg4
F0.06334800983120631
s(dp4302
g3
F2.560714846869659
sg4
F1.859880823562453
s(dp4303
g3
F0.21411814265699203
sg4
F0.20464392386030106
stp4304
s(I13
I27
tp4305
((dp4306
g3
F0.013119328400878594
sg4
F0.9317979654207091
s(dp4307
g3
F0.09658571648541925
sg4
F0.06482780819019579
s(dp4308
g3
F1.2419240629899169
sg4
F1.52334581783402
s(dp4309
g3
F0.17484835733467352
sg4
F0.12694889250118868
stp4310
s(I10
I64
tp4311
((dp4312
g3
F-0.010696507926096666
sg4
F0.8927878299004064
s(dp4313
g3
F0.0895891728901817
sg4
F0.06072159868672511
s(dp4314
g3
F2.404468763445288
sg4
F1.8431853229242727
s(dp4315
g3
F0.21449462244903894
sg4
F0.20157335626134887
stp4316
s(I8
I80
tp4317
((dp4318
g3
F0.001534385226341195
sg4
F0.8860763134814171
s(dp4319
g3
F0.09085644293298761
sg4
F0.06156673849137434
s(dp4320
g3
F2.4822956086846575
sg4
F1.9180004590386037
s(dp4321
g3
F0.22417814983236184
sg4
F0.21730492894958753
stp4322
s.